	.cpu cortex-m4
	.eabi_attribute 27, 1	@ Tag_ABI_HardFP_use
	.eabi_attribute 28, 1	@ Tag_ABI_VFP_args
	.eabi_attribute 20, 1	@ Tag_ABI_FP_denormal
	.eabi_attribute 21, 1	@ Tag_ABI_FP_exceptions
	.eabi_attribute 23, 3	@ Tag_ABI_FP_number_model
	.eabi_attribute 24, 1	@ Tag_ABI_align8_needed
	.eabi_attribute 25, 1	@ Tag_ABI_align8_preserved
	.eabi_attribute 26, 1	@ Tag_ABI_enum_size
	.eabi_attribute 30, 4	@ Tag_ABI_optimization_goals
	.eabi_attribute 34, 1	@ Tag_CPU_unaligned_access
	.eabi_attribute 18, 4	@ Tag_ABI_PCS_wchar_t
	.file	"filter.c"
@ GNU C99 (15:6.3.1+svn253039-1build1) version 6.3.1 20170620 (arm-none-eabi)
@	compiled by GNU C version 7.2.0, GMP version 6.1.2, MPFR version 4.0.1-rc1, MPC version 1.1.0, isl version 0.15
@ warning: MPFR header version 4.0.1-rc1 differs from library version 4.0.1.
@ GGC heuristics: --param ggc-min-expand=100 --param ggc-min-heapsize=131072
@ options passed:  -fpreprocessed obj/main/SPRACINGF3/common/filter.i
@ -mthumb -mcpu=cortex-m4 -mfloat-abi=hard -mfpu=fpv4-sp-d16
@ -auxbase-strip obj/main/SPRACINGF3/common/filter.o -ggdb3 -Os -Wall
@ -Wextra -Wunsafe-loop-optimizations -Wdouble-promotion -Wundef -std=gnu99
@ -fsingle-precision-constant -flto -fuse-linker-plugin -ffunction-sections
@ -fdata-sections -fverbose-asm -ffat-lto-objects
@ options enabled:  -faggressive-loop-optimizations -falign-jumps
@ -falign-labels -falign-loops -fauto-inc-dec -fbranch-count-reg
@ -fcaller-saves -fchkp-check-incomplete-type -fchkp-check-read
@ -fchkp-check-write -fchkp-instrument-calls -fchkp-narrow-bounds
@ -fchkp-optimize -fchkp-store-bounds -fchkp-use-static-bounds
@ -fchkp-use-static-const-bounds -fchkp-use-wrappers
@ -fcombine-stack-adjustments -fcommon -fcompare-elim -fcprop-registers
@ -fcrossjumping -fcse-follow-jumps -fdata-sections -fdefer-pop
@ -fdelete-null-pointer-checks -fdevirtualize -fdevirtualize-speculatively
@ -fdwarf2-cfi-asm -fearly-inlining -feliminate-unused-debug-types
@ -fexpensive-optimizations -fforward-propagate -ffunction-cse
@ -ffunction-sections -fgcse -fgcse-lm -fgnu-runtime -fgnu-unique
@ -fguess-branch-probability -fhoist-adjacent-loads -fident -fif-conversion
@ -fif-conversion2 -findirect-inlining -finline -finline-atomics
@ -finline-functions -finline-functions-called-once
@ -finline-small-functions -fipa-cp -fipa-cp-alignment -fipa-icf
@ -fipa-icf-functions -fipa-icf-variables -fipa-profile -fipa-pure-const
@ -fipa-ra -fipa-reference -fipa-sra -fira-hoist-pressure
@ -fira-share-save-slots -fira-share-spill-slots
@ -fisolate-erroneous-paths-dereference -fivopts -fkeep-static-consts
@ -fleading-underscore -flifetime-dse -flra-remat -flto-odr-type-merging
@ -fmath-errno -fmerge-constants -fmerge-debug-strings
@ -fmove-loop-invariants -fomit-frame-pointer -foptimize-sibling-calls
@ -fpartial-inlining -fpeephole -fpeephole2 -fplt -fprefetch-loop-arrays
@ -freg-struct-return -freorder-blocks -freorder-functions
@ -frerun-cse-after-loop -fsched-critical-path-heuristic
@ -fsched-dep-count-heuristic -fsched-group-heuristic -fsched-interblock
@ -fsched-last-insn-heuristic -fsched-pressure -fsched-rank-heuristic
@ -fsched-spec -fsched-spec-insn-heuristic -fsched-stalled-insns-dep
@ -fschedule-insns2 -fsection-anchors -fsemantic-interposition
@ -fshow-column -fsigned-zeros -fsingle-precision-constant
@ -fsplit-ivs-in-unroller -fsplit-wide-types -fssa-backprop -fssa-phiopt
@ -fstdarg-opt -fstrict-aliasing -fstrict-overflow
@ -fstrict-volatile-bitfields -fsync-libcalls -fthread-jumps
@ -ftoplevel-reorder -ftrapping-math -ftree-bit-ccp -ftree-builtin-call-dce
@ -ftree-ccp -ftree-ch -ftree-coalesce-vars -ftree-copy-prop -ftree-cselim
@ -ftree-dce -ftree-dominator-opts -ftree-dse -ftree-forwprop -ftree-fre
@ -ftree-loop-if-convert -ftree-loop-im -ftree-loop-ivcanon
@ -ftree-loop-optimize -ftree-parallelize-loops= -ftree-phiprop -ftree-pre
@ -ftree-pta -ftree-reassoc -ftree-scev-cprop -ftree-sink -ftree-slsr
@ -ftree-sra -ftree-switch-conversion -ftree-tail-merge -ftree-ter
@ -ftree-vrp -funit-at-a-time -fvar-tracking -fvar-tracking-assignments
@ -fverbose-asm -fzero-initialized-in-bss -masm-syntax-unified
@ -mlittle-endian -mpic-data-is-text-relative -msched-prolog -mthumb
@ -munaligned-access -mvectorize-with-neon-quad

	.text
.Ltext0:
	.section	.gnu.lto_.profile.cc62ecdc4bea130,"",%progbits
	.ascii	"x\234ce`b`e```d\230\312T\007\000\002\327\001#"
	.text
	.section	.gnu.lto_.icf.cc62ecdc4bea130,"",%progbits
	.ascii	"x\234ce`b\320a@\000v\206\003\217\366\177df<<\357\305"
	.ascii	"\011V\246#s\317\234\343f^t`\351\037F\226}\213'\335\345"
	.ascii	"am={\353<\017\333\357M\037\34602\000\000\365n\025\342"
	.text
	.section	.gnu.lto_.jmpfuncs.cc62ecdc4bea130,"",%progbits
	.ascii	"x\234E\212\333\011\0000\014\0025\217\346\263\203u(W"
	.ascii	"o\240\204\012\202z&\014\007_\005'Y\222h\244K\026\335"
	.ascii	"\271{\220\017\262>\216\343\335r\330\232\200\013\226"
	.ascii	"\255\012\272"
	.text
	.section	.gnu.lto_.inline.cc62ecdc4bea130,"",%progbits
	.ascii	"x\234m\222-O\003A\020\206\337\331\333\273\333~$\275"
	.ascii	"@E\2014]A\250#(TCN!\371\015\030\014\010\022~\301\341"
	.ascii	"*Q  \241\016\022\020x\314% *\221HR\205\254D4\300\314"
	.ascii	"\354\265)\011'\236\231\335w2_{1\014N\015\026_\012\270"
	.ascii	"\214\210\034\001\221yk\301M\267\015\222\362\231\254"
	.ascii	"\310\204f\233=O\210\240\314\225\236\230h\320g\212t\330"
	.ascii	"7`\307\006\012\234\272N\220\251\233\301N\037\250\003"
	.ascii	"\316\277\011;\352\015$\265A\333S\002\177|\025\321\343"
	.ascii	"\313\367\027u\257\013'\302-\227\242;\352F\036\376d\356"
	.ascii	"HQ#M\206^\264~\2751\236\020j\357\273\246*\025\017\373"
	.ascii	"\031\222\2473oa^k\334\221P\264\\#ri\240\224\034\234"
	.ascii	"a\353\007d\214\2572\"\256\335\357\2435>\232\317\316"
	.ascii	"\221\016\353\323K\327\324p&]\034\3745\026k\035\252\323"
	.ascii	"b7\332TXM4\"5\271\262\014\207C\345G8\024\2251]\336\007"
	.ascii	"\352\345\336\237%r\365\346\362\372\030^]/\322\216`\260"
	.ascii	"<\027\243 \023L5$sFzc\202\020h+#z\221hT\2527\341\321"
	.ascii	"\012}\265\"\324-2\215\322w\233\365d\0171V\270\361\352"
	.ascii	"o\331\230\334\264\302\363\263n!\377K\202\325\363\177"
	.ascii	"t\0361\350\370\005\306\365d6"
	.text
	.section	.gnu.lto_.pureconst.cc62ecdc4bea130,"",%progbits
	.ascii	"x\234ce`b\340g```g\220b\224b\222b\226b\221b\225b\223"
	.ascii	"\002\000\007\244\000\351"
	.text
	.section	.gnu.lto_pt1FilterInit.cc62ecdc4bea130,"",%progbits
	.ascii	"x\234\225\222\313KTQ\034\307\317\367\374\356\275\243"
	.ascii	"\246\022\324&\234\021\027\305$\221W\350\037i\321>bJ"
	.ascii	"\020\232\021\314\326\036\247\232\221\261\207A\21555"
	.ascii	"\\3\006\0379\251\231J\213\241\213\0052=\354\261h\027"
	.ascii	"HR\341\242E\"\206\033\355\367\273w\334\264\353\300y"
	.ascii	"\375\316\371|\177\217sl\245UI+uR)\325\302\035\244\240"
	.ascii	"\207W\225\032\250\323\200,L\035T\277F?n\321\010a9\373"
	.ascii	"\343\205n\0377\334\374\221\341#f\302\207GJ\335\347."
	.ascii	"\015\343h\347[\237\256\316>\244\233\344\021`\361\366"
	.ascii	"\367\373\302z\263l5\332x\373(3\226w\250\025\212\327"
	.ascii	"\336\365\227\257\032\342%c\322\306\177w\207\314Q\217"
	.ascii	"\010S \026\304$\242\230@T\261I\341\011\342|\375\347"
	.ascii	"VuG\323\261\000\275}c\352{\363>\272\255M\243G\026\246"
	.ascii	"C\364T\024\235\002Z\012\345\000,O\256T\034:\021\200"
	.ascii	"ck\217}K@\316ak\311\021\2376\236\376\353\323V\230A\\"
	.ascii	"\356\177\233\333\275\333\344Xa\222\230\205\003\236g"
	.ascii	">\3037\273{Y\343\257\036\316\035:\000\210#\315\234C"
	.ascii	"\002[2\3302D \261\327#PS9\326\220\252\016\221\226\231"
	.ascii	"6\220\336\314\226\253\255\"[$]$(6}\311 4\020\333\330"
	.ascii	"p\245\260o\260\330\306!\225\312\323M\261\007f\320\230"
	.ascii	"\203,(\231\230\265\355l\025A\330s\210\011\3631\263c"
	.ascii	"\207\220\315Dea\363\265UCPC\244\205\3103\304X[\\\347"
	.ascii	"\253\307\005b\"\177m\371CD^\215\202\252\375Yy3\330\350"
	.ascii	"\2418\300\320h\2123\213\024)\202y\256\225\234~\255\254"
	.ascii	"/\222[\026\3056)\347sx\270\027|\012,\300\345\020D\273"
	.ascii	"\260\361\366tM\374\377\324\026\0035);\226D\255^\375"
	.ascii	"Bzt\276A\304\202\177\227\343C.'\177\344\226\016\367"
	.ascii	"Ro\302M\236\353N\271\211\236d\262'\345vu_\354\273\320"
	.ascii	"\333\221PN\270\262\273\316&.\367\351\363g\376\002\202"
	.ascii	"\272\341\246"
	.text
	.section	.gnu.lto_pt1FilterApply.cc62ecdc4bea130,"",%progbits
	.ascii	"x\234\225\221\317O\023Q\020\307\347\373f\273\355\026"
	.ascii	"\013\027\343\0054\0344\015\232\260\007\343_\343\311"
	.ascii	"4\2324\261\305 \232xb\251\260*\032\361\200\005\011\315"
	.ascii	"\242\211\001\177T@\264\006\023\245\321\203)QQ\016F\215"
	.ascii	"^\344`z\360\240\007\275Ug\366i4\\\014\233\354\354{\337"
	.ascii	"7\363\231\357\233M\220\241o\206h/\021u\312\013&\230"
	.ascii	"K/\211\206R\006\320E\220\002\015\032\014b\214'\030\257"
	.ascii	"\207\027\246\371\"G\222\346\310\366\353\213\251\215"
	.ascii	"v\335\002\335\262\035~\274\362\336\351\231\015\344\251"
	.ascii	"OL\357\\\232\253;\021\033\272\"\331s\350\302,\272\264"
	.ascii	"\305\015\364H\356\325\360Z\331\345] YG\027V\236\246"
	.ascii	"\263\327\203\240\024\324?\214s\260;b\306M\360\277\205"
	.ascii	"\"\021n!+\351\337\327\032#\355\274'.\035{S]\366\264"
	.ascii	"TZ>\257\271Zjp{s\251!T\221\325\374O\213\255\313\031"
	.ascii	"\327QOb\345\016\\\310w~\035\365\240\365\363LPom_\335"
	.ascii	"\221\221\233K#\326:GCB\203\253!\251!\005\205y\272Lk"
	.ascii	"h\213\033\320\250\020u`\347e#_n\242\364\260\371\366"
	.ascii	"\244\366\250\260\316\256<\362d-\251\303\342\330\371"
	.ascii	"\217g\253g\267E\250\014\211\365\356\210\235\212\030"
	.ascii	"\237\327\011\311\331\307G\0335\366\253\201=2X@\204I"
	.ascii	"uLX\204O\212n\034\264dg\213\250\2731Jo\215\245?\250"
	.ascii	"S\026\225\330\"\352^\2142\212\272\037\243N\227\303f"
	.ascii	"\207e\2513!\252\370*<\227\261b2\026]\025'\303w\007\254"
	.ascii	"\350U8%\003Rq*l\354\267b:N\366,s\331\263b\233\244\311"
	.ascii	"\221z.7\366\251\266\311\360L\221\376c\271\366w\220\017"
	.ascii	"\340\013\222\276\2404\363y\335\374\356\240'\2432\035"
	.ascii	"\371\201r\257\316^\377x\177\316/\034\312\027\375\\_"
	.ascii	"\241\320W\364\217\344\217\016\034\356\357\315\221kW"
	.ascii	"\211|\361\330\211\201_*\224\364\320"
	.text
	.section	.gnu.lto_pt1FilterApply4.cc62ecdc4bea130,"",%progbits
	.ascii	"x\234\235R[KTQ\024\336\353\354s\346\242\316x\247\302"
	.ascii	"K>\024\"\206\247\260^\373\015=\364\020\364\0201%\010"
	.ascii	"\251a\032\364\222\333\333h\226YP\243Yr\314\020/9\251"
	.ascii	"\231\346mtRA&2\273\210\220\020I\0321QA\"V/\326Zg\217"
	.ascii	"L\210 v\230Yg\355\265\327\367\255\313w4\246\260\243"
	.ascii	"\032c\331\214\261\303\370\007\215\201r\343%c\2456E\341"
	.ascii	"s:\023\021\352h*\023Q\034T\031V\001\310\0216`%\012W"
	.ascii	"\241\004\352x=\207\327\025=\367\370unp\006*\036\177"
	.ascii	"\3144.9\351\010\220\206\307\212\261\361\0055\243M\340"
	.ascii	"\343\257\037L\351k\367\253\006W\330\035\314n\207dh\203"
	.ascii	"d\252\335\001\031\230{\337\335\342\261\360T`\350\033"
	.ascii	"\327\306'#\322[\205(\023\376\345[\\\35438\207N\340\377"
	.ascii	"\0021\304\340!\244c\372\332l\240\322\311\367\233\320"
	.ascii	"\272y\357\220\235\240Xrn\300BP\005\2726C\025\006^\023"
	.ascii	"\372y5\360[\341\231&\364fm\347'g\250\352\213\335\365"
	.ascii	"\302\017\006\016\372Hb\263\223\341 !U\006\335&\322\333"
	.ascii	"1\355\263\360C&\262e\361\201_\015\025]\335\323'\314"
	.ascii	"1\241g\213\252\275\220N\200\217\275\353\267\035\026"
	.ascii	"\2256\201\013x\014\026\300w\367\033\360\213\365?U\302"
	.ascii	"\377=\361K\322.\334!\216\247\022N\003*jAW\263\322\331"
	.ascii	"F\306N&\022\210\322A\256\223L4\231\0302\261d\342\200"
	.ascii	"\346\214'7\201L\242\331\005\253\301\262\244\346U<\340"
	.ascii	"\233\007\241l8\370\341\0305\322\304IGO\345\304\254\225"
	.ascii	"t\344\346|?\247\237WG\031\320T\212\003\246\031\034\223"
	.ascii	"8\364\221xx\367\336\2674\300u\257\220W\012<\001\003"
	.ascii	"\032h,\006\375\240\263e\250X\230\234\2020u\327\344\372"
	.ascii	"/H\271+l\224b\356d\000R\310\307n8\233\323\251\231\225"
	.ascii	"\252\332\231\275\022\202?\215ah\336\035\342\260b\014"
	.ascii	"\003\345\215\033\001\033\306\220\267\325\333\345@\332"
	.ascii	"j!b\260:\265#\026\327\252\002`\226x\212%\020\363\312"
	.ascii	"=d\225 ;\"|\375+Sj\010\002!\010=\0222\010)\310M\245"
	.ascii	"=\201\003\004\332\264\207\346\313l\233M\014\20571\014"
	.ascii	":\326$\262\306`\360\304\177\261\215\230l\364\235\300"
	.ascii	"(\261E\232\033S\303\372}\275(Gs\354P0\237I\254\020\361"
	.ascii	"\030\012F\\\201\223\222\312\271C\252\361p\217\376\015"
	.ascii	"\252K\222*z\207T\317\302\313\2330\251\312=\356`\264"
	.ascii	"\344\212\301\316\220Q*z\305!\203\261f0\206\202\015\356"
	.ascii	"wGd0\276\211\307\341F\344\367\022\310\226\301\00439"
	.ascii	"^r\016\331e0\021\323\360J\352\235\271\225B\371\333)"
	.ascii	"4\031^\344\024)\224\310\276AY\363\310[%T\201\206\251"
	.ascii	"\301\355\240b\230\224\224\245_(t\351y\247s\363uWA^^"
	.ascii	"A\276\236\223{\256\350la\226\213Y\244\247\345\346\237"
	.ascii	"/.\322rN\271\212\213\2243\307\377\002\002\203\262\030"
	.text
	.section	.gnu.lto_BiQuadNewLpf.cc62ecdc4bea130,"",%progbits
	.ascii	"x\234\245\226kLTG\024\307\347\334\331]\026\226\345e"
	.ascii	"\015V\321\222\246\204\3304\256\332\364S?5m\332\244I"
	.ascii	"\223\246~2mbV\262V\023\036\026h\373\221+\302\002j\325"
	.ascii	"/\345!\245K\253\026\255\242,\017qUdy\211<}\024l}`\221"
	.ascii	"e\021B\211\321\032$\244@\317\231\271\273k\3456\264z"
	.ascii	"\303\\\346\016\363\373\377\3179sg.F\246\260O-\214e0"
	.ascii	"\306Va\003\316@9\330\317\330.\263\002@\035\325\014,"
	.ascii	"G\201\0348\300K8\264\026\214y\224\265U*^\336\222\307"
	.ascii	"/\253\307\274\340\342\214\225a\243\013\252`-\316\272"
	.ascii	"\226W\363\035\337\317]\034\300\200\217\017\373\016\371"
	.ascii	"\242\350Q\201D|\034\360\036)\262\3605\300\260\357k\231"
	.ascii	"{;\371\250\220\353\2553\251\257\2718\207\237\201\243"
	.ascii	"\036\034\207\0048\006\011\014\207\030\234\200d\234\335"
	.ascii	">T\325k\346o\010\262xt\314\251\020\232\253z\007\212"
	.ascii	"9\241\0068\371,j`P-\320\252\372\246\021\013\177K\240"
	.ascii	"\373\352gz\2424\364\217\025e\252\327\340\342F8\365,"
	.ascii	"kdp\032\222\011\250\231\236\274\030\311\337\021p\335"
	.ascii	"\315\253C\206\244\303\"\344\376\3225uN\365\262j\240"
	.ascii	"\260k\376\311\323\205\323\033Nun\346\357\011\362\206"
	.ascii	"\317\037\253\201w0\327#\252BX\255.v\373\210w\013\377"
	.ascii	"@`\225mE\371F\215\373\2536\310\325\353r\376\357\313"
	.ascii	"\317q\376\241\000\357=\234\251\343\001\303\020xF\027"
	.ascii	"\034\234\362\364D\363\217\004X]\356+\214\0108\272\203"
	.ascii	"\340Y]\360R\311O\035a\374c\001\376\350\232/\011\200"
	.ascii	"wB\3409]\260\303\327=\011|\223\000\253\306\375\263Q"
	.ascii	"\032x\251\364\245PQ/\350\242O\016t\0350\361\315\002"
	.ascii	"u\373\207{\3025\364q(\313\213\272\340|\355\256\262h"
	.ascii	"\376\231\000\317\3459\247M\0328\020\002\275\272`\177"
	.ascii	"\301\336I\013\337\"\300\231\323\267:#\027g\331\252_"
	.ascii	"\236\374\366\032\023w\010\260\347~\307\343\200\343H"
	.ascii	"c\020l\327\005G\334\363\337ZM\006\350\200$h\303\326"
	.ascii	"\202\255\031[\023\266\363\330<\330\032\2615`\253\303"
	.ascii	"\346\206$\271\015\341\022\230\200\261\360\377B\236\276"
	.ascii	"\016^u~\241@\365\336\215\357N\177\025\200\336x\205\266"
	.ascii	"\034\247\033\356\036\0241\002m?\023\015\2041R43\322"
	.ascii	"\014g\244\032A\303\026\272E\322\315\312\310&\212\272"
	.ascii	"\321\214\034b\030y\3062r\215c\344\273\214\376\270\034"
	.ascii	"h_\306Sw%\335\3446g{\260\321\241\263\227+\364\233O@"
	.ascii	"\356\015\347\324\003\013\345T\301\225\012\016l\002v"
	.ascii	"\037r\036\327F8\016b\255\246\246\007g#V\227\253\205"
	.ascii	"\252\0323\265\260\360\012\236ZtU>(w\2028>:a5\201W\235"
	.ascii	"EF\011\322\261\324\324\360\250\335\240Q\240!tI\3442"
	.ascii	"\254F}\346\207\334DQQ,\004b\322\276\317=\252H\035\374"
	.ascii	"1\242\324\321\352\223VM\211kJ\303\323\005]R\251+`\356"
	.ascii	"\341\022\012\023\234!\244\335F\332al\022\362*\033\367"
	.ascii	"\255\220\223\314(\273{\266\371\317\250\2349u\205\213"
	.ascii	"\233\3120w\006\335\220\303p\252\013g\007\351\026\242"
	.ascii	"\315\202\366DJ8|\021\254 \334\243\0037\023\034.\323"
	.ascii	"\232s\217j\021F\3404\224\270\271\377\007\325\242\345"
	.ascii	"\305\264\274\274\265]\307d^\275\201\274\216kE\265\010"
	.ascii	"PD\222(G\"u\223\350\023qX(\016\341\033\250\213\025a"
	.ascii	"dB\3015QpV\232T\352\254\250\313\226\263\242\226\\\272"
	.ascii	"~Z:-\247\"M;Z\202=\356\213n\345\231\214B\340\025\314"
	.ascii	"(h\336@\346\321\364\\9!\312J\333\014U\304\310\224\034"
	.ascii	"q\3139\350T\354\354xS:\305`\310K\206x\365i\247\363\244"
	.ascii	"\022#\343\035\324Tb\345\"\316\266\215\364\232\244\312"
	.ascii	"AP\026\311\\{Z\306C2\261\262Z~M&n\311H\256S\261\254"
	.ascii	"!\225FR\211\223\013[\321p\001\244\3162QA\2121\267\270"
	.ascii	"\353u\032\243Op~\353\2250\372\256\033\304\361\366\244"
	.ascii	"\263\2730\322\005\025\273h\353}\205\033\032\027s9\374"
	.ascii	"BG\032\376u\250\311w\206\333\252\3118\221N\275\001p"
	.ascii	"A\251\370\267\001\006\301\206\016\322\262:h\031\217"
	.ascii	"\265^d\371\377<n\010\017 \217_\311#^\210M\234h\213x"
	.ascii	".\271\337\204\234Br7\237\012\271/\030\362J\261n/\024"
	.ascii	"\362-\341!\316\361\333\344\261Rz\014\005=\022pu^\320"
	.ascii	"\343\216\3600\220\307\020y$\220\330\364\370\331\303"
	.ascii	"qzr\217`)\275\273B\317Hz\277\203\015'\234l\233\237\001"
	.ascii	"|\343\314\264\274\342-\033\026g\305sG|O8\230\310a\004"
	.ascii	"l\001\265\351q\317\363\206\354\023\202a$8\372/!\373"
	.ascii	"_,\3441\341@rp\037C&\265)<8&\277\021\353(\276\362{\360"
	.ascii	"\325\304\257\034\276P\253\326\331\2622Sli\366\035\351"
	.ascii	"\266\224\214\264\264\214t\333\266\035\251\331\216\314"
	.ascii	"u)\314*{\357~\231\375~\246\343\013s\272\343\353M\331"
	.ascii	"\366l\207%\323\261-\323\221\265\375\023\354+[7*[7(["
	.ascii	"\327+\366\215\212}\203b_o\264\247\356\334nWR\262\224"
	.ascii	"\254tcF\232\343s{D\226=mg\252\203\246\377\015\212d\265"
	.ascii	"O"
	.text
	.section	.gnu.lto_applyBiQuadFilter.cc62ecdc4bea130,"",%progbits
	.ascii	"x\234\235\224KO\023Q\024\307\357\231;\235\026\350\203"
	.ascii	"\247\013!\206\205\015!&L\330\372\011\214\237\300-!5"
	.ascii	"\201\264@h]3T(\010\011\352\202\362\220\246\0305\370"
	.ascii	"B@\224\227\002\025D^\012\321\235\02066\232t!\306\230"
	.ascii	"H$\006<\347\336\016U6f\230\244\377\2319\275\347w\316"
	.ascii	"\377\336;\327\306\024\326\2461V\311\030+\306\037p\006"
	.ascii	"\312\215\015\306\232\035\012\000=\030\016`M\0124\301"
	.ascii	"u\336\303\341}\313\350\000\357\342q\034\246\342\353"
	.ascii	"\367w\375I7\275\002\224\342k\313\334\374\226Z>d\340"
	.ascii	"\225\350\331\327&#\255\027\342\\a}8\372>\224\300\020"
	.ascii	"\224P\211\007P\216co\306\266\017\355\374\0140|>\034"
	.ascii	"\335\335U\313\356\211\274\337\343\232q\026\263\340!"
	.ascii	"\360\277\023\011\004\217\240\014\207\357\304\276\375"
	.ascii	"P\271W\244\356\354w_\244\314\260\221x\033\345\224\311"
	.ascii	"\341\361\361L|\031\2062\032\376\245si\316\316\317\211"
	.ascii	"\324\225\251\305n\227\367\216\250zp\353\324X\304X1T"
	.ascii	"\252\374\344\337|\272p\370\247\261\203n\227\246\302"
	.ascii	"\010x\311\021\032\031\005\015\360F\221\221\017\2200"
	.ascii	"\016\016\333\214\304\317\342\333\277\334\247q\362\260"
	.ascii	"\"\247\256U\240\266m\364\250\221\330I\034$Y$\331$9$"
	.ascii	"N\022\027\211\233\304C\222K\222G\222OR@RHR\304D#\254"
	.ascii	"\003;\241e\352\304\351\301;OAx&\265\226\314\246\346"
	.ascii	"b\234\226,\332\272\260i\2475\342\302\365\336\362Z\273"
	.ascii	"3\016\261f\264]\032\347j\014\015\217\221K\232\314\331"
	.ascii	"\344\004\327\207\015\371\227\002O!\016\275d\225\301"
	.ascii	"8\350,\005W\373#\327\354\022mCz\214\253\214\012\256"
	.ascii	"^\2221\315\"\377\231\340\003\361\237\013>\242\374\022"
	.ascii	"e\267\210\232\020(\205P\223f\253\037s$\313\201\235!"
	.ascii	"\221\202\321H_\226\014f\011\013\016Y\264\235\313`\266"
	.ascii	"\305\252S\242\252\330\014\323\246\201\2014+\307\"kF"
	.ascii	"\260Tb\2758rP)YNl\015\211i\007\036\031t\011\023NQ5\265"
	.ascii	"\276\230^\027\267\305\262/EY\033\225\2355-\234\227("
	.ascii	"\217E\324\234@i\204\2327\035L\333$+\027;C\"\005{#\303"
	.ascii	"\323w]2\234'l\344\232\036\012d4\337b\341\204(l\247\302"
	.ascii	"\257L\017\265\022U`\021\265 P\016B-\036yH\357\243B\354"
	.ascii	"\014\211\246\207\006\031-\022.\012\331g\010\227\212"
	.ascii	"#\001\277K\214R\027\321\324FR,\313\261&\006k\331\177"
	.ascii	"\332x\235\331\014K\240\313\315\033\356Om\236\020\367"
	.ascii	"&\363u,\023N\225\335m\235\020\267\222\231\244U\302y"
	.ascii	"$n\373\204\270\265\314\276Y'\\\021\373\012\341\301\275"
	.ascii	"\256\222\364\004\323\001\324\201\307\004\236oh\241\270"
	.ascii	"B\0176V\353\201\252\232:\275\272>\020\250\257\323/\327"
	.ascii	"\370C\276\306\212j\246\005\253\002\015~\237-\030\252"
	.ascii	"\012\371\264F_\360\212?\364\007\355\274\032V"
	.text
	.section	.gnu.lto_filterApplyAverage.cc62ecdc4bea130,"",%progbits
	.ascii	"x\234eT\355K\323Q\024\276\347\336\373\373m\356EQ\321"
	.ascii	"\242\226\370A\221\2422\350CP\3647\364\241\277`,\213"
	.ascii	"Aj\350\354K\037\3749\347*{\261\242\024\3159#z\2637]"
	.ascii	"eZ\215V!f\220/\021!R}(\203&H\251\230 \244\235s\357\224"
	.ascii	"\245\027v\271\367\331\363\234{\236s\316f0\316&$c\373"
	.ascii	"\031c\007\360\003&\003~a\230\261:;\007\251\017B\037"
	.ascii	"^\331%\027g\007\031\263\034F\310\306,\227\001@\270e"
	.ascii	"\007V\313\2054\240\226K\006\011\011\313\270\004\243"
	.ascii	"\325$Z\004\214\205\272\333\305y\021\025\014$^g\336\267"
	.ascii	"}\317\244+@!^'\373\303\323r\353-\013W\242e\324\326\032"
	.ascii	"\033\2652\242\202\263V\244\337\006\017\334\002\017\345"
	.ascii	"u\007\266\"\371\317\310PC\246(\000\206\347\340\245\301"
	.ascii	"\030/\271\241\204\223\227\205U\204*\350\002\221.\244"
	.ascii	"@p\027J\210\276\024\036\343\242HI\377\336\237\373e\220"
	.ascii	"4h%>\377\341\226+*\004\334\323\322\335\036\330EB<\336"
	.ascii	"W\302\313\003\343A)\266)a\333l\313\202#%\374\270\261"
	.ascii	"\325J\310\250\220\360`\355\243X\206\207PB\202\361\251"
	.ascii	"\2531.\366\350\204\233f\246\314\342\353*\341O\035\233"
	.ascii	".\326[o-IIw\377\257\247\205\364o=KW\334\246\204\036"
	.ascii	"(\246b`\015b`\002c\234\020\374\276\253\251n\216\213"
	.ascii	"}*\364\324\330D\217;\025\372k\207g%\264\001\217\326"
	.ascii	"\207\206\307P\374\360\003$\254\245\345\223Vb\270\340"
	.ascii	"Z2k\0030\012\312\325w\022\310\270\2016\014S\001v<\232"
	.ascii	"\031\2649\200|9\311\241\0137\346\246-\223\256Y\270\331"
	.ascii	"\262U\224\034%\312\005\252{\236B\362U\037X#\232\300"
	.ascii	"\3019\203\347\220M\374\200`\347\335\246-\312\2246\324"
	.ascii	"\334\360z\304F\203\3011\235'\230m\022\202\263'\343\361"
	.ascii	"IH\253\006\206V\205@\037\275`F\204\021\301j'\241\276"
	.ascii	"9\234\024\032!\020vx\030>PH\010I\020E\347g\260\2518"
	.ascii	"\300B\305}\037\177\014Z`\217`F\030\242-\234\0022\020"
	.ascii	"K\237[\023$<U\371\324\267\257p\234\021\341@\246~\372"
	.ascii	"\264S\203.-\014\016\014%\355z\340\325O\001\372\264x"
	.ascii	"\365\0017RU?\322#f\252\210nr\275\330\230\302\262\322"
	.ascii	"\313\"U\253\027\006\337\235rE!R\207\275.\304Z\241\020"
	.ascii	"\372\251\265\360\014\242@\352\346\241\275\244^\303\355"
	.ascii	"\354\005\246\350\316\024\3759\322\361\005\355\340K<"
	.ascii	"\240_\314\216\010\205\256V\257\207\252\227\255Y\361"
	.ascii	"x\037\327\264\034\254\331\372\"\347\250\"K\206\177\013"
	.ascii	"\330_=NT\\uV\201\200MBh\374\315v\035\205\30365\223\363"
	.ascii	"\000\324p>\261\370\023\037\317\026]'\346\00135\371\342"
	.ascii	"\342o\004r\304\207\\\214k\320\330\240\277\266\344\257"
	.ascii	"\353N\232\201\265\016o\246\034:R\016_(\207\271:\367"
	.ascii	"s/\017\221&\"\362\224\303\\\235zl\305a\036\261\272\303"
	.ascii	"\221\227\235\240i\371\212i\260\351\024\015\021J\265"
	.ascii	"\021-\204l8\315\233w\226VW\371J\313\275\376\212R_ey"
	.ascii	"yeE\351a\377\321@Y\325N\0373\374\025\307j\002\206\257"
	.ascii	"\262\246\"\340\362\036/\253\362\036);\030\360\006\312"
	.ascii	"DuM9\367\373\377\001\025\242\213?"
	.text
	.section	.gnu.lto_filterApplyAveragef.cc62ecdc4bea130,"",%progbits
	.ascii	"x\234eT[KTQ\024\336k\357}\316\214\316%\324\264\300\261"
	.ascii	"|P\304\250\014z\010\212\336{\353\241_ f1\220\0326\366"
	.ascii	"\352q\032'\322\312\202J\322\206\261\213Y\246\351\230"
	.ascii	"y\251\310\211\222\222\256\343C\210P\017]\240\211\356"
	.ascii	"\245\224\341\330Z{\037\305t\203\207}\326Y\337\267\326"
	.ascii	"\367\2555\032\214\263)\311\330v\306\330N\374\003\223"
	.ascii	"\001?\361\214\261:'\007\251/B_\3569%\027G\0372f\245"
	.ascii	"\033!\007\263\334\006\000\305-'\260Z.\244\001\265\\"
	.ascii	"2\210K\230\303#\030\235&\321, \021\352='\216\213\250"
	.ascii	"` \361\365\373\323\226\267^z\005\310\307\327\320\335"
	.ascii	"\221IY\334a\341\2117\377v\014\206\353wD\005gg1\373\012"
	.ascii	"\370\240\003|\324\326U(\306\334\351\347c\365^\261\006"
	.ascii	"\030\336\233^v\017\247\025\265+\334\223~\323*@\024t"
	.ascii	"\202X\014$\"\270\006E\230\036L\205\023\\\024(\350l\367"
	.ascii	"\317\257\006A\203V\374\3014\267\334Q!\240KC7\373`\023"
	.ascii	"\001\361\332\255\200\247F'\202R\254S\3007\037\036\277"
	.ascii	"\366\332\300O\315\202jJ\270\276\264&\232\320\003E\224"
	.ascii	"?\361\261\265\217\213-\012;s\251\376\215\243\360\242"
	.ascii	"\352w:\232\023\013[\217,I=\367\376\217\247C\245b\251"
	.ascii	"\323\036SB\014\012\311\013\264\240\017L`\214S\004\277"
	.ascii	"w6\325\375\344b\233\242\376\230\230\214yl\352T\324w"
	.ascii	"\362\220\2466\340\306rj\350\207\302\236q\210[\251\271"
	.ascii	"\303V\374\313\332\363\303+W\003#R\256\276I \335\006"
	.ascii	"\3120L\025p\342\325L\243G:\220.\027)t\343\203y\350\341"
	.ascii	"\245\327\025\344t\206b\311T\240, \333\263U$\207>\256"
	.ascii	"R\263`\015\250\004w\247\021\357!\207x\017\301\266\277"
	.ascii	"M\271J\231V\325u?\365\033\362Z-'\265\252\246w\023\362"
	.ascii	"X\022\202?\016\317\216\274\203E\276`\021e\011*\032\000"
	.ascii	"3\"\214\010\372\236\204Cg\302I\241#\024\204\015>\206"
	.ascii	"U\362)B\020\214\"q#N\027\027Y(\336c\211~\320\000g\004"
	.ascii	"\013\"EK\330\016\244al\361\376\232 a\020}\304\234s\363"
	.ascii	"9\256\210H\307L]\372\210K\007\335\032\030\034\035K:"
	.ascii	"\365\342\253\237\004\014i\360B\001\017\246\252\311,"
	.ascii	"f\364*F\017\251\236i\260c+\220\255\347\323\360\037\017"
	.ascii	"\261I5\364\301\320\235_2\012\221:\234z>Z\205@\030\246"
	.ascii	"!\303-\210\002\241\317\214m%\364\222\334\266\001`*\335"
	.ascii	"e\247\337\306t\254\240\025D\022\001]1#\"Tt\301\275\030"
	.ascii	"\271\227\241\263fG\206\270N\313D\317\226\233\234\251"
	.ascii	"L\226\014\377=\340\220\365b\221\271\352\256\210\200"
	.ascii	"\275\203\320\304\375\365\232\205\303:\265\235S\0004"
	.ascii	"p>97\201\3053\304\255\013I\230\002\354\325\3443s\337"
	.ascii	"0\224)\306\263\220\331\240\355A\205-\311\306v\027m\301"
	.ascii	"R\215\227m\215\351\266\306;Jc\226\356\376ib7a\"\"[i"
	.ascii	"\314\322\315\367\315k\314&\357^\206_%\332@\247\345\340"
	.ascii	"\"\021\362E\330\016\254R\320\034\366\331\306a\204\272"
	.ascii	"o@U!\007ny\356\306\222\003\325e%\025\245\376\312\222"
	.ascii	"\262\252\212\212\252\312\222=\376}\201\362\352\215e"
	.ascii	"\314\360W\356\257\011\030eU5\225\001w\351\301\362\352"
	.ascii	"\322\275\345\273\002\245\201rq\240\246\202\373\375\377"
	.ascii	"\000\264\255\224<"
	.text
	.section	.gnu.lto_.symbol_nodes.cc62ecdc4bea130,"",%progbits
	.ascii	"x\234U\310\261\021\200 \020D\321\205\003\216.hE+[\002"
	.ascii	"GS[15&\266\022\212\020\211\274M\376\354\213\360\270"
	.ascii	"0\346A\340|\360\345\256\353\000Gg\301\323[\020\212\205"
	.ascii	"\300`!2ZHL\006\234R'\000\265.\343g\346\377\027Ql{/\""
	.ascii	"\031mV\321\216^\360\0023\356)\024"
	.text
	.section	.gnu.lto_.refs.cc62ecdc4bea130,"",%progbits
	.ascii	"x\234ce`b`d\000\002\000\000I\000\011"
	.text
	.section	.gnu.lto_.decls.cc62ecdc4bea130,"",%progbits
	.ascii	"x\234\235WkPT\311\025\276\247{\006\306ax,neM-[\331X"
	.ascii	"T\344G\326Q\314\217l\345\317\256V\345Q\225\332d\267"
	.ascii	"\022S\371\023\012q\210T!\020g\214Z\331\252\\A|\240."
	.ascii	"\260+\312C\001\021V@\221\327(\353\013G\202\202\212."
	.ascii	">\021\005\306\007\017\037\350\" \310\202NNw\337\307"
	.ascii	"0\014\233\252\334\342\334\271\335\367\353\357|\347t"
	.ascii	"\367\351\213Q\"\322_\302$\251\025$\351s\"I\036\274L"
	.ascii	"\222$U\241a\227\264L\022\327\034\264Kh\355h\035h\024"
	.ascii	"_\232\320\336A{\017m\001\332\317A\232q\355a8\374]\216"
	.ascii	"\026\216\3666\332y\264z\205\373\217h\347\320\320\265"
	.ascii	"\324\210vF\361{i&\225\264\037_\030\275x\226)\\l<Es)"
	.ascii	"\343\033\025\216v?\034\325\370\"\320\017G\275\227\026"
	.ascii	"\352\245\305\245pu\370\341\012$\"/\313}\370<hn\264\017"
	.ascii	"p\340B\2647J\376F\321&\321^\241\015\243\215\240\215"
	.ascii	"\243\215\241\275D\233P|\323\037\310\347[df\016\230?"
	.ascii	"_\037c\212\237q\305\327\204\342\357\245\022\217\311"
	.ascii	"\017\267\225\210\271R\271\303@\344%\034Dn\376\200\026"
	.ascii	"\240`\331\360w\374p\374\212\314\314/\343X*\351\034\352"
	.ascii	"\370\367\374\255\027\012;\363jSz\240\013\010H@\004\030"
	.ascii	"\304\035\270\361\246G\275\000x\277\304\260 x\225.\355"
	.ascii	"G\322 \242I\024J\376\247\374\202\027\243\244v)\034|"
	.ascii	"\270J\255\251\007\205\216\350\016\000\274\007x\021\012"
	.ascii	"\331^\222\204\036=8P\203\037\3341RdpC7@\220T\374\021"
	.ascii	"\360\276\307\265\015\257\003)\246\003\237\333\007^\367"
	.ascii	"\301\302\303\262\270LQz\332\216\034\236\2541\03306X"
	.ascii	"\026\004+\014\254\253:\275\267\302\364\005\205\0103"
	.ascii	"x\200\265\007\217O\004\2136{\355t\215T\031\350\217\331"
	.ascii	"39\346\354\3157C\224\371kF\353r;C\253e9\014j\300\014"
	.ascii	"G\200B%,d\"#\314x\337*\313\251\362P\211L\347I\260$\002"
	.ascii	"\026EHP\015Q\214\223\241\240\012\"\3400D0\376\212\242"
	.ascii	"\362\346`\372)\347\317\3139\353\014\321\370\277-\230"
	.ascii	"_\237.\313\004\352\321A\255\356\000\375\371\367P\347"
	.ascii	"\337CWVI\013\360\230\031\321!\340Q_\335T\263\227b\224"
	.ascii	"\341f0`\363\305\345\374\207!\330|\333\014\357c3\377"
	.ascii	"\344\350E\243xk\302\346\344\210'\337H?\347\371\350\336"
	.ascii	"\367\335\210\201\376\233?\017\264\277\331b\244\351\300"
	.ascii	"\033\223\217vu\202\030c\301f\352\311\316\354P\301x\217"
	.ascii	"\275\256\252h9\035@\2639\326\330\365\\n\014\200\310"
	.ascii	"\310\310\250\271%<\326\201\312Eu\017w\310Y\261l^\276"
	.ascii	"\301X\233`.\034\303\030\216b\014`\215@\361\330\302\260"
	.ascii	"\005\374I]\200\\:\217aO\373b\033\030\014\026\353\330"
	.ascii	";\032\366\270_^\016\025\031\277\225j\304\345\3020\222"
	.ascii	"\222lve\263wY\262\374\221A\202S8\364$\033zB\341B\030"
	.ascii	"\234\305\274\273 \022\032\321\316@\244\272\326\3666"
	.ascii	"\274\311\267\320\032\0361\271\321\336{(\010\242\346"
	.ascii	"\012Gc\321\314\3179\034\377\037}^\231\333Y\2745\243"
	.ascii	"\207\377\341-\317\371\252.\324\222\301VEV\232<\347\267"
	.ascii	"\234]\215T\202\363`Q\200\351SY\207C\371r\300>p\212\345"
	.ascii	"p\3163\356\012\025\223G\260ym\250m_\220\230\2740\266"
	.ascii	"\337R3s\315\363v\363\335\224&\207\021X\376#\270\200"
	.ascii	"\324\255\234\372\"\314\303;.1\301\357\351-K\013\231"
	.ascii	"_,\027\337\303i\255~\277\267N\226q\025\313\006\206\203"
	.ascii	"\012=\\|\304{9\270\001\016B\017n\365K0\037\207\227\015"
	.ascii	"\334\3321\207\336\026k\312\317v}P\226\3412j\362/\013"
	.ascii	"\371\333r\276\271c\360\026\210p]\340\267\\\340\025U"
	.ascii	"\340\261\215S\335D\0218\346\310\223]\2512\333e\210\202"
	.ascii	"6]^\233\257\274v.o\337\376\235'\215t`Vy\3237\3335!\257"
	.ascii	"\271\331s#H\305]\027}\267\006\335\255!Z\0347D\347\223"
	.ascii	"\222\214\326\331\343\270\305\343\270\251\306\361L\316"
	.ascii	"\351\007%\216\0079T\336%\263j\204 \270\252\207q\325"
	.ascii	"7\214\016\036\306\205\266N\331H\307E\030\335\255\025"
	.ascii	"\207X-X\200\025\020\257P\257\"\270@\024\301k\231\303"
	.ascii	"\245\201t\023\021U\352bG\223\301\253\012\316\257\335"
	.ascii	"\302\362\327\215\361\336\325\035/\320\212\024_\216\222"
	.ascii	"\276\353\272p\001/P\312\324\035\354\354T\012aivI\000"
	.ascii	"\315\024>\3167\336\275m\000s\224_\202{~\010\264\222"
	.ascii	"y\236\227L7\212\351\321\305t\363\222\211N\232&\334a"
	.ascii	"<\351\014 fL-}\341\242\364=\337\324w/H4\347a\2635\353"
	.ascii	"\331\277h\2568VN\357)\374\214\026\210gu\207\204\213"
	.ascii	"\035\342\316\317\276l\246\205\342]_a\301\011J\367\213"
	.ascii	"\306\315g\307/\205\322R\321\250\031{\332h\241\007E\343"
	.ascii	"\350\221\226\277\322J\361|\267\324\025C\253\304\363"
	.ascii	"\376\366+\243!\264F4^\235\272ZB\204\237HlV\272\266\267"
	.ascii	"R\2611\213\331F\255;\341\316\014\242\30796\350L\377"
	.ascii	"\305\251`\230\033\251\\Q\221\336\265\344;L\324s\226"
	.ascii	"\275g\230\226\027J-\371\03639\212ud\022\355\025\332"
	.ascii	"0\332\010\332\030\3328\332\004\332K\245\306\250\205"
	.ascii	":j\244O-\324\217\025*\237\342\353]\251\273\352\325\352"
	.ascii	"\373\310\027\334\357[\251\273jU\354\240/\326\352\003"
	.ascii	"\355\0311\326\313\256M\224\201\207|\301\017f'\036\360"
	.ascii	"/\302[\361\224\006\356\363\005?\364%\276U\257\313x\342"
	.ascii	"?\031\336'\221\226\213^\377\314B\206X\312W\322\370Y"
	.ascii	"\364b\372Y\244\270\035\241\232\333\247~S%\230p\201\\"
	.ascii	"\257s\227QzJ\354\252\361\241\301\206P\355\020\352_\302"
	.ascii	"\034\274\301\261S\372Ny1\343\020\322\026\316k\\,\377"
	.ascii	"\317\302a%\367\312\201\211i\207\323\233i\207\223G;\234"
	.ascii	"n>\351\367\210\212\212}p_T\305\353\271e\257\202\325"
	.ascii	"\362)\023\336\367(\247\371L\300\254GR*a\225r#Q*\345"
	.ascii	"\305\221C\017\002\265#)j@;\222\020\007\267\365\340o"
	.ascii	"\373\026\3134\302\212ey\346\300.#='6dZ\356\313\227\006"
	.ascii	"M\241(!\247\367x&@\025\230.\004\346;]-\301\263\226\362"
	.ascii	"-\\\340fU\340\306/\233\032-\212\300\347\005!\332\231"
	.ascii	"\2040\330D4}\3708]\337V\256\357X\347\330A\013\355\020"
	.ascii	"\372\322wV\3551c\205\010\020\305<\020\273z\207\276?"
	.ascii	"f\020]L\315zv\214\345u\325\206\320'bY\014\336\337\226"
	.ascii	"a\322\013\372\350O*\331A\362\0051\303\016\335w\200R"
	.ascii	"\317\345\031\345x'\211b\324\274\034o'\021\220Ax=\037"
	.ascii	"\236\030r\032\350\250p\221q\177\370u\250\250\3473\011"
	.ascii	"\262\375\020\250\365<\372(\257\347Y(&S\027\203\332D"
	.ascii	"\342\036\356\036.\013\362^X\014\250/\254/\211\272\260"
	.ascii	".\024m\316 |\212\260O\231\266\374\307M\325\001\332Y"
	.ascii	"\375\225\230\267\332SEnqV3\252]\242\263$m\363\336i\037"
	.ascii	"@\354\235>\233\273\371l\346\250\2639~\357n\223\327\027"
	.ascii	"Pa]\257,\233\015\014\005\333\364\030\266\371N\346\036"
	.ascii	">\231/\234\025\015\224N\021\237\017\214\245\026\277"
	.ascii	"\037\030yd\346\007F\276\350\233\352\331r6d\326\005\270"
	.ascii	"\227K.P%\017V\336\256SwH\177\221\276\000\021\006\271"
	.ascii	"\272\346\\_\315\373\270\346\316\376\321\302`\232E\271"
	.ascii	"\346\252\324\311s&\232#\032\303=]\345\026\024\006El"
	.ascii	"$\353\271\\\375x{\000-\020\257\235O\277*`\037s\260\037"
	.ascii	"_\343\211\306\205"
	.ascii	"\327lt\035\014\246\305\002\321t\267o \220!\0160D\211"
	.ascii	"@\370\371\356\032\254o+\243\263F\3735\217\266L\215\366"
	.ascii	"\300\266\263%\006\214v\250Xv\265<\373Y\317\251^yk\206"
	.ascii	"\274H\036\002\206\204B5`(%\006\326\022\377\202\036\344"
	.ascii	"\261\366\247\267t\316\241\315\263\2057=\242\012\241"
	.ascii	"wz\020\225\242\263\272\345\322^\242\210h\372[\236\334"
	.ascii	"\224*[~\312\375\227k\376\017\241\377r\325\377a\356\337"
	.ascii	"Y\335\266\317\354\275\342\331\010}\305W\211\025\317"
	.ascii	"~\021\334\320\224\337\241\025\241\255?\224\0258\202"
	.ascii	"\215\340\024\307\342_'$:lk~\227\224\3400\375\346\223"
	.ascii	"?\277\277\354\303\017\245911k\023\222\034\277\214q|"
	.ascii	"`]k_cMH\212K\\\273\322fM\262\255KLXa]\035\033\267*!"
	.ascii	"\311f\215Yi\213\217]\233\350\210qlH\261\331\027\256"
	.ascii	"\222\002\225Q\363\375\215\262o\260[c\354\216\225\010"
	.ascii	"A(\371l\231\321\356\210u\330\2024\0111v\262\362O\357"
	.ascii	".\264\332\327\304\241\213\204$k\\\362\352\325\311I\326"
	.ascii	"x\376\026\307xA\035\263\343\342\244\020\015\367qJJ\342"
	.ascii	"\206\320\351\315_X\226&|\2726v\345'\266u\277O\2117\213"
	.ascii	"P\227D\3078L\352\003\331\260\230\254\217&\353\027\223"
	.ascii	"\330h\022\273\230\254\210&+\360\276\310\264\"\341\037"
	.ascii	"8\020un\210V\237\035o\3052RA)\274\204\307\353\316>\376"
	.ascii	"\247mM\354\337m\230P\205;P\371\235;\023\024o\260'$\305"
	.ascii	"\033\343\222\223\354\016C\242-6>0)\331\261jM\362\272"
	.ascii	"w\375O\202c\025\346\304\020\227l\217\377/\347\300L\223"
	.text
	.section	.gnu.lto_.symtab.cc62ecdc4bea130,"",%progbits
	.ascii	"pt1FilterInit\000"
	.ascii	"\000"
	.ascii	"\000"
	.ascii	"\000"
	.ascii	"\000\000\000\000\000\000\000\000"
	.ascii	"\313\000\000\000"
	.ascii	"pt1FilterApply\000"
	.ascii	"\000"
	.ascii	"\000"
	.ascii	"\000"
	.ascii	"\000\000\000\000\000\000\000\000"
	.ascii	"\320\000\000\000"
	.ascii	"pt1FilterApply4\000"
	.ascii	"\000"
	.ascii	"\000"
	.ascii	"\000"
	.ascii	"\000\000\000\000\000\000\000\000"
	.ascii	"\327\000\000\000"
	.ascii	"BiQuadNewLpf\000"
	.ascii	"\000"
	.ascii	"\000"
	.ascii	"\000"
	.ascii	"\000\000\000\000\000\000\000\000"
	.ascii	"\003\001\000\000"
	.ascii	"applyBiQuadFilter\000"
	.ascii	"\000"
	.ascii	"\000"
	.ascii	"\000"
	.ascii	"\000\000\000\000\000\000\000\000"
	.ascii	"\010\001\000\000"
	.ascii	"filterApplyAverage\000"
	.ascii	"\000"
	.ascii	"\000"
	.ascii	"\000"
	.ascii	"\000\000\000\000\000\000\000\000"
	.ascii	"\027\001\000\000"
	.ascii	"filterApplyAveragef\000"
	.ascii	"\000"
	.ascii	"\000"
	.ascii	"\000"
	.ascii	"\000\000\000\000\000\000\000\000"
	.ascii	"\035\001\000\000"
	.text
	.section	.gnu.lto_.opts,"",%progbits
	.ascii	"'-fmath-errno' '-fsigned-zeros' '-ftrapping-math' '"
	.ascii	"-fno-trapv' '-fno-openmp' '-fno-openacc' '-mthumb' "
	.ascii	"'-mcpu=cortex-m4' '-mfloat-abi=hard' '-mfpu=fpv4-sp"
	.ascii	"-d16' '-ggdb3' '-Os' '-fsingle-precision-constant' "
	.ascii	"'-flto' '-fuse-linker-plugin' '-ffunction-sections'"
	.ascii	" '-fdata-sections' '-fverbose-asm' '-ffat-lto-objec"
	.ascii	"ts'\000"
	.text
	.cfi_sections	.debug_frame
	.section	.text.pt1FilterInit,"ax",%progbits
	.align	1
	.global	pt1FilterInit
	.syntax unified
	.thumb
	.thumb_func
	.fpu fpv4-sp-d16
	.type	pt1FilterInit, %function
pt1FilterInit:
.LFB0:
	.file 1 "./src/main/common/filter.c"
	.loc 1 33 0
	.cfi_startproc
	@ args = 0, pretend = 0, frame = 0
	@ frame_needed = 0, uses_anonymous_args = 0
	@ link register save eliminated.
.LVL0:
	.loc 1 34 0
	vmov	s15, r1	@ int	@ f_cut, f_cut
	vldr.32	s14, .L2	@ tmp119,
	.loc 1 35 0
	vstr.32	s0, [r0, #8]	@ dT, filter_7(D)->dT
	.loc 1 34 0
	vcvt.f32.s32	s15, s15	@ tmp117, f_cut
	vmov.f32	s13, #1.0e+0	@ tmp121,
	vmul.f32	s15, s15, s14	@ tmp118, tmp117, tmp119
	vdiv.f32	s14, s13, s15	@ tmp120, tmp121, tmp118
	vstr.32	s14, [r0, #4]	@ tmp120, filter_7(D)->RC
	.loc 1 35 0
	bx	lr	@
.L3:
	.align	2
.L2:
	.word	1086918619
	.cfi_endproc
.LFE0:
	.size	pt1FilterInit, .-pt1FilterInit
	.section	.text.pt1FilterApply,"ax",%progbits
	.align	1
	.global	pt1FilterApply
	.syntax unified
	.thumb
	.thumb_func
	.fpu fpv4-sp-d16
	.type	pt1FilterApply, %function
pt1FilterApply:
.LFB1:
	.loc 1 39 0
	.cfi_startproc
	@ args = 0, pretend = 0, frame = 0
	@ frame_needed = 0, uses_anonymous_args = 0
	@ link register save eliminated.
.LVL1:
	.loc 1 40 0
	vldr.32	s13, [r0, #8]	@ _4, filter_2(D)->dT
	vldr.32	s14, [r0, #4]	@ filter_2(D)->RC, filter_2(D)->RC
	vldr.32	s15, [r0]	@ _3, filter_2(D)->state
	vadd.f32	s14, s13, s14	@ tmp119, _4, filter_2(D)->RC
	vsub.f32	s0, s0, s15	@ tmp122, input, _3
.LVL2:
	vdiv.f32	s12, s13, s14	@ tmp121, _4, tmp119
	vfma.f32	s15, s12, s0	@ _3, tmp121, tmp122
	vmov.f32	s0, s15	@ <retval>, _3
	vstr.32	s15, [r0]	@ <retval>, filter_2(D)->state
	.loc 1 42 0
	bx	lr	@
	.cfi_endproc
.LFE1:
	.size	pt1FilterApply, .-pt1FilterApply
	.section	.text.pt1FilterApply4,"ax",%progbits
	.align	1
	.global	pt1FilterApply4
	.syntax unified
	.thumb
	.thumb_func
	.fpu fpv4-sp-d16
	.type	pt1FilterApply4, %function
pt1FilterApply4:
.LFB2:
	.loc 1 45 0
	.cfi_startproc
	@ args = 0, pretend = 0, frame = 0
	@ frame_needed = 0, uses_anonymous_args = 0
	@ link register save eliminated.
.LVL3:
	.loc 1 47 0
	vldr.32	s14, [r0, #4]	@ filter_3(D)->RC, filter_3(D)->RC
	vcmp.f32	s14, #0	@ filter_3(D)->RC
	vmrs	APSR_nzcv, FPSCR
	.loc 1 45 0
	vmov	s15, r1	@ int	@ f_cut, f_cut
	.loc 1 47 0
	bne	.L6	@,
	.loc 1 48 0
	vldr.32	s14, .L7	@ tmp130,
	.loc 1 49 0
	vstr.32	s1, [r0, #8]	@ dT, filter_3(D)->dT
	.loc 1 48 0
	vcvt.f32.s32	s15, s15	@ tmp128, f_cut
	vmov.f32	s13, #1.0e+0	@ tmp132,
	vmul.f32	s15, s15, s14	@ tmp129, tmp128, tmp130
	vdiv.f32	s14, s13, s15	@ tmp131, tmp132, tmp129
	vstr.32	s14, [r0, #4]	@ tmp131, filter_3(D)->RC
.L6:
	.loc 1 52 0
	vldr.32	s13, [r0, #8]	@ _14, filter_3(D)->dT
	vldr.32	s14, [r0, #4]	@ filter_3(D)->RC, filter_3(D)->RC
	vldr.32	s15, [r0]	@ _13, filter_3(D)->state
	vadd.f32	s14, s13, s14	@ tmp133, _14, filter_3(D)->RC
	vsub.f32	s0, s0, s15	@ tmp136, input, _13
.LVL4:
	vdiv.f32	s12, s13, s14	@ tmp135, _14, tmp133
	vfma.f32	s15, s12, s0	@ _13, tmp135, tmp136
	vmov.f32	s0, s15	@ <retval>, _13
	vstr.32	s15, [r0]	@ <retval>, filter_3(D)->state
	.loc 1 55 0
	bx	lr	@
.L8:
	.align	2
.L7:
	.word	1086918619
	.cfi_endproc
.LFE2:
	.size	pt1FilterApply4, .-pt1FilterApply4
	.section	.text.BiQuadNewLpf,"ax",%progbits
	.align	1
	.global	BiQuadNewLpf
	.syntax unified
	.thumb
	.thumb_func
	.fpu fpv4-sp-d16
	.type	BiQuadNewLpf, %function
BiQuadNewLpf:
.LFB3:
	.loc 1 59 0
	.cfi_startproc
	@ args = 0, pretend = 0, frame = 0
	@ frame_needed = 0, uses_anonymous_args = 0
.LVL5:
	.loc 1 68 0
	vldr.32	s15, .L10	@ tmp134,
	.loc 1 62 0
	vldr.32	s14, .L10+4	@ tmp137,
	.loc 1 59 0
	push	{r4, lr}	@
	.cfi_def_cfa_offset 8
	.cfi_offset 4, -8
	.cfi_offset 14, -4
	.loc 1 68 0
	vmul.f32	s0, s0, s15	@ tmp133, filterCutFreq, tmp134
.LVL6:
	.loc 1 62 0
	vmov	s15, r1	@ int	@ refreshRate, refreshRate
	vcvt.f32.u32	s15, s15	@ tmp135, refreshRate
	.loc 1 59 0
	vpush.64	{d8, d9}	@
	.cfi_def_cfa_offset 24
	.cfi_offset 80, -24
	.cfi_offset 81, -20
	.cfi_offset 82, -16
	.cfi_offset 83, -12
	.loc 1 62 0
	vmul.f32	s15, s15, s14	@ tmp136, tmp135, tmp137
	vmov.f32	s16, #1.0e+0	@ tmp139,
	vdiv.f32	s14, s16, s15	@ sampleRate, tmp139, tmp136
.LVL7:
	.loc 1 59 0
	mov	r4, r0	@ newState, newState
	.loc 1 68 0
	vdiv.f32	s17, s0, s14	@ omega, tmp133, sampleRate
.LVL8:
	.loc 1 69 0
	vmov.f32	s0, s17	@, omega
	bl	sinf	@
.LVL9:
	vmov.f32	s19, s0	@ sn,
.LVL10:
	.loc 1 70 0
	vmov.f32	s0, s17	@, omega
.LVL11:
	bl	cosf	@
.LVL12:
	vmov.f32	s18, s0	@ cs,
.LVL13:
	.loc 1 71 0
	vldr.32	s0, .L10+8	@ tmp141,
.LVL14:
	vmul.f32	s0, s17, s0	@ tmp140, omega, tmp141
	vdiv.f32	s0, s0, s19	@, tmp140, sn
	bl	sinf	@
.LVL15:
	.loc 1 88 0
	movs	r3, #0	@ tmp155,
	str	r3, [r4, #24]	@ float	@ tmp155, newState_21(D)->x2
	str	r3, [r4, #20]	@ float	@ tmp155, newState_21(D)->x1
	.loc 1 89 0
	str	r3, [r4, #32]	@ float	@ tmp155, newState_21(D)->y2
	str	r3, [r4, #28]	@ float	@ tmp155, newState_21(D)->y1
	.loc 1 76 0
	vmov.f32	s15, s16	@ a0, tmp139
	vfma.f32	s15, s19, s0	@ a0, sn, _12
	.loc 1 73 0
	vsub.f32	s12, s16, s18	@ _14, tmp139, cs
.LVL16:
	vmov.f32	s14, #5.0e-1	@ tmp146,
	vmul.f32	s14, s12, s14	@ b0, _14, tmp146
.LVL17:
	.loc 1 78 0
	vfms.f32	s16, s19, s0	@ a2, sn, _12
.LVL18:
	.loc 1 81 0
	vdiv.f32	s13, s14, s15	@ _19, b0, a0
	.loc 1 82 0
	vdiv.f32	s14, s12, s15	@ tmp147, _14, a0
.LVL19:
	.loc 1 81 0
	vstr.32	s13, [r4]	@ _19, newState_21(D)->b0
	.loc 1 82 0
	vstr.32	s14, [r4, #4]	@ tmp147, newState_21(D)->b1
	.loc 1 77 0
	vmov.f32	s14, #-2.0e+0	@ tmp149,
	vmul.f32	s18, s18, s14	@ a1, cs, tmp149
.LVL20:
	.loc 1 83 0
	vstr.32	s13, [r4, #8]	@ _19, newState_21(D)->b2
	.loc 1 84 0
	vdiv.f32	s14, s18, s15	@ tmp150, a1, a0
	vstr.32	s14, [r4, #12]	@ tmp150, newState_21(D)->a1
	.loc 1 85 0
	vdiv.f32	s14, s16, s15	@ tmp154, a2, a0
	.loc 1 90 0
	vldm	sp!, {d8-d9}	@,
	.cfi_restore 82
	.cfi_restore 83
	.cfi_restore 80
	.cfi_restore 81
	.cfi_def_cfa_offset 8
.LVL21:
	.loc 1 85 0
	vstr.32	s14, [r4, #16]	@ tmp154, newState_21(D)->a2
	.loc 1 90 0
	pop	{r4, pc}	@
.LVL22:
.L11:
	.align	2
.L10:
	.word	1086918619
	.word	897988541
	.word	1059623626
	.cfi_endproc
.LFE3:
	.size	BiQuadNewLpf, .-BiQuadNewLpf
	.section	.text.applyBiQuadFilter,"ax",%progbits
	.align	1
	.global	applyBiQuadFilter
	.syntax unified
	.thumb
	.thumb_func
	.fpu fpv4-sp-d16
	.type	applyBiQuadFilter, %function
applyBiQuadFilter:
.LFB4:
	.loc 1 94 0
	.cfi_startproc
	@ args = 0, pretend = 0, frame = 0
	@ frame_needed = 0, uses_anonymous_args = 0
	@ link register save eliminated.
.LVL23:
	.loc 1 98 0
	vldr.32	s12, [r0, #20]	@ _7, state_2(D)->x1
	vldr.32	s15, [r0, #4]	@ state_2(D)->b1, state_2(D)->b1
	vldr.32	s9, [r0]	@ state_2(D)->b0, state_2(D)->b0
	vldr.32	s8, [r0, #8]	@ state_2(D)->b2, state_2(D)->b2
	.loc 1 99 0
	vldr.32	s14, [r0, #28]	@ _15, state_2(D)->y1
	.loc 1 98 0
	vldr.32	s11, [r0, #12]	@ state_2(D)->a1, state_2(D)->a1
	vldr.32	s10, [r0, #16]	@ state_2(D)->a2, state_2(D)->a2
	vmul.f32	s15, s12, s15	@ tmp132, _7, state_2(D)->b1
	.loc 1 94 0
	vmov.f32	s13, s0	@ sample, sample
	.loc 1 98 0
	vfma.f32	s15, s9, s0	@ tmp134, state_2(D)->b0, sample
	vldr.32	s9, [r0, #24]	@ state_2(D)->x2, state_2(D)->x2
	.loc 1 103 0
	vstr.32	s13, [r0, #20]	@ sample, state_2(D)->x1
	.loc 1 98 0
	vfma.f32	s15, s8, s9	@ tmp136, state_2(D)->b2, state_2(D)->x2
	.loc 1 102 0
	vstr.32	s12, [r0, #24]	@ _7, state_2(D)->x2
	.loc 1 98 0
	vfms.f32	s15, s11, s14	@ tmp139, state_2(D)->a1, _15
	vldr.32	s11, [r0, #32]	@ state_2(D)->y2, state_2(D)->y2
	.loc 1 106 0
	vstr.32	s14, [r0, #32]	@ _15, state_2(D)->y2
	.loc 1 98 0
	vfms.f32	s15, s10, s11	@ tmp139, state_2(D)->a2, state_2(D)->y2
	vmov.f32	s0, s15	@ <retval>, tmp139
.LVL24:
	.loc 1 107 0
	vstr.32	s15, [r0, #28]	@ <retval>, state_2(D)->y1
	.loc 1 110 0
	bx	lr	@
	.cfi_endproc
.LFE4:
	.size	applyBiQuadFilter, .-applyBiQuadFilter
	.section	.text.filterApplyAverage,"ax",%progbits
	.align	1
	.global	filterApplyAverage
	.syntax unified
	.thumb
	.thumb_func
	.fpu fpv4-sp-d16
	.type	filterApplyAverage, %function
filterApplyAverage:
.LFB5:
	.loc 1 113 0
	.cfi_startproc
	@ args = 0, pretend = 0, frame = 0
	@ frame_needed = 0, uses_anonymous_args = 0
.LVL25:
	push	{r4, r5, r6, lr}	@
	.cfi_def_cfa_offset 16
	.cfi_offset 4, -16
	.cfi_offset 5, -12
	.cfi_offset 6, -8
	.cfi_offset 14, -4
	.loc 1 114 0
	movs	r3, #0	@ sum,
.LBB2:
	.loc 1 115 0
	subs	r4, r1, #1	@ ii, count,
.LVL26:
	add	r5, r2, r1, lsl #2	@ ivtmp.41, averageState, count,
.LVL27:
.L14:
	.loc 1 115 0 is_stmt 0 discriminator 1
	cmp	r4, #0	@ ii,
	bgt	.L15	@,
.LBE2:
	.loc 1 119 0 is_stmt 1
	str	r0, [r2]	@ input, *averageState_10(D)
.LVL28:
	.loc 1 120 0
	add	r0, r0, r3	@ sum, sum
.LVL29:
	.loc 1 122 0
	sdiv	r0, r0, r1	@, sum, count
.LVL30:
	pop	{r4, r5, r6, pc}	@
.LVL31:
.L15:
.LBB3:
	.loc 1 116 0 discriminator 3
	ldr	r6, [r5, #-8]	@ _15, MEM[base: _30, offset: 4294967288B]
	str	r6, [r5, #-4]!	@ _15, MEM[base: _31, offset: 0B]
	.loc 1 117 0 discriminator 3
	add	r3, r3, r6	@ sum, _15
.LVL32:
	.loc 1 115 0 discriminator 3
	subs	r4, r4, #1	@ ii, ii,
.LVL33:
	b	.L14	@
.LBE3:
	.cfi_endproc
.LFE5:
	.size	filterApplyAverage, .-filterApplyAverage
	.section	.text.filterApplyAveragef,"ax",%progbits
	.align	1
	.global	filterApplyAveragef
	.syntax unified
	.thumb
	.thumb_func
	.fpu fpv4-sp-d16
	.type	filterApplyAveragef, %function
filterApplyAveragef:
.LFB6:
	.loc 1 125 0
	.cfi_startproc
	@ args = 0, pretend = 0, frame = 0
	@ frame_needed = 0, uses_anonymous_args = 0
.LVL34:
	push	{r4, r5, r6, lr}	@
	.cfi_def_cfa_offset 16
	.cfi_offset 4, -16
	.cfi_offset 5, -12
	.cfi_offset 6, -8
	.cfi_offset 14, -4
	.loc 1 126 0
	vldr.32	s15, .L19	@ sum,
	lsls	r6, r0, #2	@ _29, count,
	mvn	r4, #3	@ tmp159,
.LBB4:
	.loc 1 127 0
	subs	r2, r0, #1	@ ii, count,
.LVL35:
	adds	r3, r1, r6	@ ivtmp.67, averageState, _29
	muls	r4, r0, r4	@ _33, count
.LVL36:
.L17:
	.loc 1 127 0 is_stmt 0 discriminator 1
	cmp	r2, #0	@ ii,
	bgt	.L18	@,
.LBE4:
	.loc 1 131 0 is_stmt 1
	vstr.32	s0, [r1]	@ input, *averageState_10(D)
.LVL37:
	.loc 1 132 0
	vadd.f32	s0, s15, s0	@ sum, sum, input
.LVL38:
	.loc 1 133 0
	vmov	s15, r0	@ int	@ count, count
	vcvt.f32.s32	s15, s15	@ tmp164, count
	.loc 1 134 0
	vdiv.f32	s0, s0, s15	@, sum, tmp164
.LVL39:
	pop	{r4, r5, r6, pc}	@
.LVL40:
.L18:
.LBB5:
	.loc 1 128 0 discriminator 3
	vldr.32	s14, [r3, #-8]	@ _15, MEM[base: _31, offset: 4294967288B]
	subs	r3, r3, #4	@ ivtmp.67, ivtmp.67,
	adds	r5, r3, r4	@ tmp160, ivtmp.67, _33
	add	r5, r5, r6	@ tmp161, _29
	vstr.32	s14, [r5]	@ _15, MEM[base: _38, offset: 0B]
	.loc 1 129 0 discriminator 3
	vadd.f32	s15, s15, s14	@ sum, sum, _15
.LVL41:
	.loc 1 127 0 discriminator 3
	subs	r2, r2, #1	@ ii, ii,
.LVL42:
	b	.L17	@
.L20:
	.align	2
.L19:
	.word	0
.LBE5:
	.cfi_endproc
.LFE6:
	.size	filterApplyAveragef, .-filterApplyAveragef
	.text
.Letext0:
	.file 2 "/usr/include/newlib/machine/_default_types.h"
	.file 3 "/usr/include/newlib/sys/_stdint.h"
	.file 4 "/usr/include/newlib/sys/lock.h"
	.file 5 "/usr/include/newlib/sys/_types.h"
	.file 6 "/usr/lib/gcc/arm-none-eabi/6.3.1/include/stddef.h"
	.file 7 "/usr/include/newlib/sys/reent.h"
	.file 8 "/usr/include/newlib/stdlib.h"
	.file 9 "/usr/include/newlib/math.h"
	.file 10 "./src/main/common/filter.h"