	.cpu cortex-m4
	.eabi_attribute 27, 1	@ Tag_ABI_HardFP_use
	.eabi_attribute 28, 1	@ Tag_ABI_VFP_args
	.eabi_attribute 20, 1	@ Tag_ABI_FP_denormal
	.eabi_attribute 21, 1	@ Tag_ABI_FP_exceptions
	.eabi_attribute 23, 3	@ Tag_ABI_FP_number_model
	.eabi_attribute 24, 1	@ Tag_ABI_align8_needed
	.eabi_attribute 25, 1	@ Tag_ABI_align8_preserved
	.eabi_attribute 26, 1	@ Tag_ABI_enum_size
	.eabi_attribute 30, 4	@ Tag_ABI_optimization_goals
	.eabi_attribute 34, 1	@ Tag_CPU_unaligned_access
	.eabi_attribute 18, 4	@ Tag_ABI_PCS_wchar_t
	.file	"maths.c"
@ GNU C99 (15:6.3.1+svn253039-1build1) version 6.3.1 20170620 (arm-none-eabi)
@	compiled by GNU C version 7.2.0, GMP version 6.1.2, MPFR version 4.0.1-rc1, MPC version 1.1.0, isl version 0.15
@ warning: MPFR header version 4.0.1-rc1 differs from library version 4.0.1.
@ GGC heuristics: --param ggc-min-expand=100 --param ggc-min-heapsize=131072
@ options passed:  -fpreprocessed obj/main/SPRACINGF3/common/maths.i
@ -mthumb -mcpu=cortex-m4 -mfloat-abi=hard -mfpu=fpv4-sp-d16
@ -auxbase-strip obj/main/SPRACINGF3/common/maths.o -ggdb3 -Os -Wall
@ -Wextra -Wunsafe-loop-optimizations -Wdouble-promotion -Wundef -std=gnu99
@ -fsingle-precision-constant -flto -fuse-linker-plugin -ffunction-sections
@ -fdata-sections -fverbose-asm -ffat-lto-objects
@ options enabled:  -faggressive-loop-optimizations -falign-jumps
@ -falign-labels -falign-loops -fauto-inc-dec -fbranch-count-reg
@ -fcaller-saves -fchkp-check-incomplete-type -fchkp-check-read
@ -fchkp-check-write -fchkp-instrument-calls -fchkp-narrow-bounds
@ -fchkp-optimize -fchkp-store-bounds -fchkp-use-static-bounds
@ -fchkp-use-static-const-bounds -fchkp-use-wrappers
@ -fcombine-stack-adjustments -fcommon -fcompare-elim -fcprop-registers
@ -fcrossjumping -fcse-follow-jumps -fdata-sections -fdefer-pop
@ -fdelete-null-pointer-checks -fdevirtualize -fdevirtualize-speculatively
@ -fdwarf2-cfi-asm -fearly-inlining -feliminate-unused-debug-types
@ -fexpensive-optimizations -fforward-propagate -ffunction-cse
@ -ffunction-sections -fgcse -fgcse-lm -fgnu-runtime -fgnu-unique
@ -fguess-branch-probability -fhoist-adjacent-loads -fident -fif-conversion
@ -fif-conversion2 -findirect-inlining -finline -finline-atomics
@ -finline-functions -finline-functions-called-once
@ -finline-small-functions -fipa-cp -fipa-cp-alignment -fipa-icf
@ -fipa-icf-functions -fipa-icf-variables -fipa-profile -fipa-pure-const
@ -fipa-ra -fipa-reference -fipa-sra -fira-hoist-pressure
@ -fira-share-save-slots -fira-share-spill-slots
@ -fisolate-erroneous-paths-dereference -fivopts -fkeep-static-consts
@ -fleading-underscore -flifetime-dse -flra-remat -flto-odr-type-merging
@ -fmath-errno -fmerge-constants -fmerge-debug-strings
@ -fmove-loop-invariants -fomit-frame-pointer -foptimize-sibling-calls
@ -fpartial-inlining -fpeephole -fpeephole2 -fplt -fprefetch-loop-arrays
@ -freg-struct-return -freorder-blocks -freorder-functions
@ -frerun-cse-after-loop -fsched-critical-path-heuristic
@ -fsched-dep-count-heuristic -fsched-group-heuristic -fsched-interblock
@ -fsched-last-insn-heuristic -fsched-pressure -fsched-rank-heuristic
@ -fsched-spec -fsched-spec-insn-heuristic -fsched-stalled-insns-dep
@ -fschedule-insns2 -fsection-anchors -fsemantic-interposition
@ -fshow-column -fsigned-zeros -fsingle-precision-constant
@ -fsplit-ivs-in-unroller -fsplit-wide-types -fssa-backprop -fssa-phiopt
@ -fstdarg-opt -fstrict-aliasing -fstrict-overflow
@ -fstrict-volatile-bitfields -fsync-libcalls -fthread-jumps
@ -ftoplevel-reorder -ftrapping-math -ftree-bit-ccp -ftree-builtin-call-dce
@ -ftree-ccp -ftree-ch -ftree-coalesce-vars -ftree-copy-prop -ftree-cselim
@ -ftree-dce -ftree-dominator-opts -ftree-dse -ftree-forwprop -ftree-fre
@ -ftree-loop-if-convert -ftree-loop-im -ftree-loop-ivcanon
@ -ftree-loop-optimize -ftree-parallelize-loops= -ftree-phiprop -ftree-pre
@ -ftree-pta -ftree-reassoc -ftree-scev-cprop -ftree-sink -ftree-slsr
@ -ftree-sra -ftree-switch-conversion -ftree-tail-merge -ftree-ter
@ -ftree-vrp -funit-at-a-time -fvar-tracking -fvar-tracking-assignments
@ -fverbose-asm -fzero-initialized-in-bss -masm-syntax-unified
@ -mlittle-endian -mpic-data-is-text-relative -msched-prolog -mthumb
@ -munaligned-access -mvectorize-with-neon-quad

	.text
.Ltext0:
	.section	.gnu.lto_.profile.572328cf3668d031,"",%progbits
	.ascii	"x\234ce`b`c```dhd[\302\002\000\004\020\001>"
	.text
	.section	.gnu.lto_.icf.572328cf3668d031,"",%progbits
	.ascii	"x\234ce`b\350b@\000q\206+\247\367\354\340d\334{`\353"
	.ascii	"b>\246E\177\177\317ag~\330\260g+\023\313\252\256E\317"
	.ascii	"XY\027\356\2770\225\225\355\375\234\317A\354\313\037"
	.ascii	".\356g\3458\277\365\317:\026\316\347sV\317e\342\352"
	.ascii	"Y\264b7\007\367\377\303s\032Xy:\317\337\337\303\314"
	.ascii	"\373{\367NQ\276\231\037\357\354\345\344?\276\357\341"
	.ascii	"+6\201e=g\3262\012\3368\361w\016\247\320\211yW\257\362"
	.ascii	"\012\177\376\265\270\231O\244\261oE\027\237\350\261"
	.ascii	"\017\253\373y\305\376/\236\366\232\225\001\000\320\312"
	.ascii	"D\347"
	.text
	.section	.gnu.lto_.jmpfuncs.572328cf3668d031,"",%progbits
	.ascii	"x\234mO9\022\3020\020[\331\016\341L\302]ex\014\257J"
	.ascii	"\265\356H\315\014CAA\311[\250i(y\0055\253\230\243ag"
	.ascii	"\254\321z%y\235\211\223\002\362\255\265\000P8\300\253"
	.ascii	":r\347\032\016|\342\333\243\307\375\266?d\365)\2661"
	.ascii	"Vf\215\254\307sw\305\331\213\340\202\332\344!%d\235"
	.ascii	"\313\372^\352C\012s\015\237\314\231\231\253j\377C\006"
	.ascii	"\224\017\223tD>6\000\375\334\302<\023^\026L\0056\312"
	.ascii	"*\337\253\232\246\372\321\177g\332\215a+\240\3730\202"
	.ascii	"\314\0307',\010K\302*0\274d\266\274\000$\227%\\"
	.text
	.section	.gnu.lto_.inline.572328cf3668d031,"",%progbits
	.ascii	"x\234\215T\317k\023Q\020\376\346\275\267\233\335d\323"
	.ascii	"\254Ml\033\233\322\005#\025,%\"\236,\022Pz\314_\340"
	.ascii	"\241\027\333\372?\250\364R\010\"\222S\025,6x\261\212"
	.ascii	"\177@A\013A/\365\244R\021\204\352\251\207\012=\210\277"
	.ascii	"\360P\304\231\267\331M*\255\230\303\314{\363\336\367"
	.ascii	"\315\274o&\353@a\303 \375\015\003\243oAP\265\375w>\334"
	.ascii	"\366\270\222(\301w\310E\264pW\323\362\322\213\327\231"
	.ascii	";zU\023\201\036Q\005\210\346\273~\256\353\257u=1R\214"
	.ascii	"\313\024\226\312\264\307\3530\353\271\272\007u[u(d\377"
	.ascii	"\325\357\220-@!\233gN\001\350\004\340u.\3323\0350U\253"
	.ascii	"\241\221)\374}E\275)\364_189I\206\2429.\365\351\313"
	.ascii	"\337\277h\354\376\242'\347\253\214\2405\032\223:\017"
	.ascii	"={\314g\266\\\313\237\251nn\3538\203\373e*\024\023!"
	.ascii	"h5jP+\306@m;\026\351`\260L\352(\312'6\035\263\031\256"
	.ascii	"2&+\265W\310\023x\177\321\256<]\365\0043\007\036\307"
	.ascii	"\252\005r\331\344Y\244V\243\325\310 \343\220\356]W\007"
	.ascii	"0\366\272i\026K\202\361\376\377\252\017\243\271\361"
	.ascii	"\264\313\364\315\011\333\367,F\312\334\034\306\350E"
	.ascii	"+\273\356)\244\3539o\343\024\006>^V`\214Q\360\357]2"
	.ascii	"\240\266\353)k\241:\301\010w\360!\317\002\357#\033\215"
	.ascii	"$:-\3349dC\341^\2403\025\313>\237,z\331f\275\244R\316"
	.ascii	"\020*8\315\211\220\233\350F\234\315:~A9\344n\264o\326"
	.ascii	"\254\236\001\374\023\374\206\004\32579\261\313\3031"
	.ascii	"<@a\377\000\261\010\026;\200\354 9\306\016W:\006=\321"
	.ascii	"2}=\011\304\324\304L\213\231\205\333yF\327\205\244\200"
	.ascii	"\362T\254\267\216U\212b\255\262\341\316\007\205`\357"
	.ascii	"B\"\226^\0376\262\364\354\322\213Y\343W\362>\224}\245"
	.ascii	"\257\376\020\347vq\030q\340\257\315\240\260y\365(\336"
	.ascii	"\230R\254\374\231J\362\332\021\204\2137*\351X\035T\350"
	.ascii	"_\356X\265:I\33590\347\233\0174rk3Ib\261\011\035O)\006"
	.ascii	"\203\321\323\362\035y\276e\322f\024Kg_\311\307\345\312"
	.ascii	"\247\367^\032,U\266\360]\242m\332\377\231O\303\307\253"
	.ascii	"?\260\312\331\324\016\355-\027\323\360\020\006\276\201"
	.ascii	"\310vH\015\335\372\334\005\330\324\177\000\321_\247"
	.ascii	"h"
	.text
	.section	.gnu.lto_.pureconst.572328cf3668d031,"",%progbits
	.ascii	"x\234\015\306I\026@0\000D\301ohS\020$$\257/\341\376"
	.ascii	"\267\243V%Z^\240@\363\267\243Gu`db\366\342\240\265n"
	.ascii	"\354D\037>}))\353\326\343\017.\235\0020"
	.text
	.section	.gnu.lto_sinf.part.0.572328cf3668d031,"",%progbits
	.ascii	"x\234\215\224[OTW\024\307\367:k\237\313\234\333\000"
	.ascii	"\002\223\266N$\215\224\370\"\261mb\372d\374\012\375"
	.ascii	"\006\206\027}\000\023\365\2017\217t2P/\325\230Xd\354"
	.ascii	"\250)\305[\275\243TF\241cM4\332B\323\326[HS/H\0234\230"
	.ascii	"\264)F4\205\256\265\367\031@\246\011\236d\326\336g\235"
	.ascii	"\375\377\235\377Z\373\3541\205!\"K\210\017\204\020\027"
	.ascii	"\351\007I\001\341\236a\232\204`\250\321\000\251F\324"
	.ascii	"\343UG\032\270\363\206\020\221kfl\021\371&\330\352\271"
	.ascii	"\245\307\253\216mX\372\271\243\236;F\242\243\201\356"
	.ascii	"\\\216~\002|^\265\315q\015O\245}\225\366Ji\037\002="
	.ascii	"\011\000x\0229 \266\206\006J\323\262\235\204\353\371"
	.ascii	"\001lE[\350K\306\343n\354D\370%s\366+\374\002\017\241"
	.ascii	"\000I\267\177\015\345FC\276\005\250\243\333\314\340"
	.ascii	"\367#r\305\321\210\256bg_\272\367XQ\036BCt\321\352c"
	.ascii	"\260\024\216\302R.\3768\254\240\265\271B{\233\213i\020"
	.ascii	"4\337v\344\345\217\262\241G\351n\237\267\242\345\244"
	.ascii	"\202\023\200\363\205\014\202o\241\201\327\017t\036\374"
	.ascii	"\024\227)i\317\237\305aY\337\255\244\177\364aoT\314"
	.ascii	"\324\261\372\344\233j\276h\365\301\007Oo\031\370\276"
	.ascii	"Rf\277\271\2746\026>\277\203]Z\210p\372\177\205\217"
	.ascii	"\317M\357\013,\011g\240\036NA=\227D\225\234\245\375"
	.ascii	"\020\302\340\014?9\363+D\321\364L{\024\025\336\203w"
	.ascii	"@\331\325\246QE\251\242\311\245Xjj\363\324Q\323\204"
	.ascii	"\212\256`\226\307i\237C\300!\344\220\344P\301\241\222"
	.ascii	"C\025\207%\034\2529\324(u-pL\3516\211\355d\221\276\215"
	.ascii	"\355\030\322\200;\250}4\210I\250\311cm(\304\016DA_\020"
	.ascii	"\216\303g\373\263\377>\253\345b\362h\344\021\270\253"
	.ascii	"\247N\006\351\003QG\024U\020\205{\024=|\321~\023\324"
	.ascii	"&\234\203\264\030\203\266:U>\275\212T\202yR\320\267"
	.ascii	"\204c\240K&\220x\002\231\373\327~\007\215f\356\327\257"
	.ascii	"~\272\036\306`\243\014|\236\300tM\002\344\261\306\020"
	.ascii	"\304\305\277k\011l\306\316S\004\221\374&\253\344\374"
	.ascii	"\313\354\256])\215\227y\304\305\234\367\2269\227\312"
	.ascii	"\271\275\3009\262\363\341Y\347\314\2754:\270[j\360\036"
	.ascii	"(\267~\241d\035\363\2302\311\272\264\366\246\210\354"
	.ascii	"\260u\325\206\341,\316\321\356\377\266w\237\031\333"
	.ascii	"\2042\330E\015#yB\374\200z\207\272Vk\265\3716\200>\002"
	.ascii	"hU\240U\326\242\222\357 M\360\005\335\261\224\011\227"
	.ascii	"M\250\206\334\275;\257\206\211\327\027\306\235RG\312"
	.ascii	"\201\227f\213\360\304#\320\2335\265F\313\355\267)\242"
	.ascii	"\277T\304T\\\204\263\370K\013\\\205\275\240\012G\271"
	.ascii	"\360y'\346\2668\301\354\\v`\302\322p\227R\234\235\225"
	.ascii	"\3229\244\254^54\344\352U\236Z\025g\273>\321I\2372d"
	.ascii	"\355vw\373C;\256\346\371\314\314\262\330\\\361\310\340"
	.ascii	"im\356r\251\240\233\361^\006\244%\341\376\266\321I+"
	.ascii	"\026\3763O8}\357g-\274\242\205\271\354\347\037ia\250"
	.ascii	"\374\006B5\265\177\225N&)O\264B\367\215\031/\246\275"
	.ascii	"\232\243\035\036\272\326\241i\003\263\264\270\257\025"
	.ascii	"\212\226\324\336\372=\235\254\244<\321\306z\272\237"
	.ascii	"\224\016\354\364\034-:~\347\204\246\015\226hS\246\026"
	.ascii	"V\251.Ujo\343\361\367\262D\365\255\212\017\010\215V"
	.ascii	"\2420\3621}\002.\235\023\307\033\031YM\333\023\360\366"
	.ascii	"L\000\237\372ju\220\252I\345\347\016$\351\017\014\350"
	.ascii	"\031\035\271wW6n\336\324\324\330\274nCKc\323\306\346"
	.ascii	"\346\215-4\337\262~\363\312&\001\255F\353\207\262uC"
	.ascii	"\313\226\377\000\265C\035\216"
	.text
	.section	.gnu.lto_applyDeadband.part.1.572328cf3668d031,"",%progbits
	.ascii	"x\234m\222\317KTQ\024\307\317\367\236{\337\033\007\013"
	.ascii	"\332\306\023\204\204A\002\007\267\005\375\027\375\001"
	.ascii	"\323\214P\320\214\240\375Xz3\033A\303\002QS|\330&4\373"
	.ascii	"aJ-\202`\242YgM\364k\323fR\242\205AP\021\021\3329w&"
	.ascii	"p\341\203w\317\271\347}?\337s\356\34592\024\031\242"
	.ascii	"\343DtZ^d\010\361\315MIb\230\020\215\341Z?\371\254m"
	.ascii	"$\344;\031\221V\257d\254qZ\310F\372\261\323\375/G\200"
	.ascii	"&>\003\032\211\015[\027a\0047x\216\321\030{\264\310"
	.ascii	"S\274\304\004+\333\357/\027>\037\326-\320-\333\255\247"
	.ascii	"\325\035\333\273\354\345y>\267\030\317o\274\366\035"
	.ascii	"Klh^\344+H\260\214D\247\273\213^\021\177y6\376\026\334"
	.ascii	"\005\222<\375P\317\347\356\004\356\3574\373\036\201"
	.ascii	"\260\012\336\317\251\017\356!'\352\307+\327\313|,\200"
	.ascii	"\2376\232\337\2426\371c\246M\336?\200|\200\234\352\233"
	.ascii	"\353\2733\207\"\253\023\311 \017\021A\342\332\033x\277"
	.ascii	"\2737\356\375\302\211#1\240m\014\024\341\320\322\206"
	.ascii	"\325\205\225hBP\275\235\011\2165\362\244\330k\334\302"
	.ascii	"\330\307\372\373\364\224\272\246\014i6{\355\305\253"
	.ascii	"Xo\307\200\260\026\316N4\311L\265~\376\212\253\267\252"
	.ascii	"ON\266\304,\372Tl\2661\332\035\206\222FR\015jK\215D"
	.ascii	"\2757\353\315\256\266\365>/G\265\254z\315V\337\265\275"
	.ascii	"\354\201^6\250\2430\3506Z7\231\012\275\203\321\333{"
	.ascii	"SI\013u\"\372\011'\235\371\317\257\337\342\002K\202"
	.ascii	"\272\325\313rX(+\377\330\321\276\374\360P1_.\234\253"
	.ascii	"\344\213\203\345\362`E\362\013g\207\373\212\344.\025"
	.ascii	"\316_\034\310\224\006\012\2453\205J\351\037\325\247"
	.ascii	"\255\022"
	.text
	.section	.gnu.lto_sinf.572328cf3668d031,"",%progbits
	.ascii	"x\234m\222\315k\023A\030\306\337g\336\331$6\2667E\264"
	.ascii	"\321 \306\322K\003\202\177\200\377\202g/\222\213=$\005"
	.ascii	"\333Cn;M\227\004\014\250\027\015\351W\016Z[\233j\333"
	.ascii	"DZ\360\253\013\361\244XP\"\210\240\202\037\005\225\026"
	.ascii	"T\204\"\030}g\267B\005\027v\347\235w\236\3373\3630\353"
	.ascii	"\220\2423\212\3508\021\235\224\027\016A]^'\032\215)"
	.ascii	"\245\357\037&\323\305\3554\231\275\014m\333\320\200"
	.ascii	"\035M\014\344*\326p\331u/q\205\361\314[\232\344\213"
	.ascii	"\\c\321\310\364\353\323\361\367=v\012$e\352=\\{\245"
	.ascii	"\373g\215<~e%\321\234\363u\215\025UE=\207^\314\242\327"
	.ascii	"n~\023\375\242\035\277[*tq\002$\365\350\215\355'\272"
	.ascii	"o&\340\332\215\2109&\024\346\301\273Ak\204:\372\254"
	.ascii	"\376Ae\3724\037\011\320\231\015\177]\247\256\005\350"
	.ascii	"\233\025n\032\337KZz\341_\332>\242\236~\373\371\261"
	.ascii	"\342\243\001Y\274~\357\324\016\270\365\202\253!\310"
	.ascii	"\270\375_\360\335r\347JwDc\021)\334B\312F\222$K\210"
	.ascii	"@\006\333]|\016\337t~\227\214\277\261o\376\320\036\330"
	.ascii	"\363*\330\003\213\231\254kih\307~\242A\214X\020\210"
	.ascii	".\210O+Ne\251[q\376\204B\273\370\272\036\265\306S\314"
	.ascii	"S\322\375\210B2\330G<\244E\"\371V\332,\307C\211\016"
	.ascii	"[cW\213\010\033\216\364v\337\213F\022\313\022\343\003"
	.ascii	"\274\227\255G\177E\242X\335\252\257v\207\012\237\320"
	.ascii	"\330IZ\026;/\312_\344\007\010\2241Q\216\375\\\373\336"
	.ascii	"\343\3762\007j\354T\331\346m\302%9[\215#D?\020\225R"
	.ascii	"YT\333\010\233P\262&*Y\201\320\013\255\3166\022\023"
	.ascii	"&f\355\203;\274\203\204j\354\027o\266\361!\220\320\007"
	.ascii	"\007\322\303\3473\351\354\331\301\\:3\224\315\016\345"
	.ascii	"\244\03697<\220!\344U\376\204\316\017\346F\376\000m"
	.ascii	"\225\277\234"
	.text
	.section	.gnu.lto_cosf.572328cf3668d031,"",%progbits
	.ascii	"x\234MPKK\002Q\024>\337\234\321$H\332\025\345\210\213"
	.ascii	"@\334\350\017\351W\204\233Z\250\220-\332\315\365A\023"
	.ascii	"\005\031\201I\226\314\252\264\367k\327\"g\025T\024\364"
	.ascii	"XD\213\210ZE\264\210 \"\310:\327\010\272p\271\347\203"
	.ascii	"\357u\256\217\014\032\004Q\230\210\372\345\202\011\306"
	.ascii	"\3549Q.`\000zP\001\220m\300F\211+\214\213\342\316\022"
	.ascii	"\317\260+4S\340\353Y\3651\250!\020\021X<l\336\232\261"
	.ascii	"\272\222\343U\356\254\375\206g\272l\320\202\260\033"
	.ascii	"\010\241\216\220\216XEL\270\325\003'\337\311\026H\346"
	.ascii	"\334\312\307\251\031]n\353\256\367\374j@TX\003\377\027"
	.ascii	"j#\254#\252\371\017\273\255r\227\337\324\306\342\267"
	.ascii	"\001\277l@\333\227\360T\353\333Q\336Q\317I\330\007h"
	.ascii	"\266\241u\334\026\323\224\260\365F\323\002\344\345'"
	.ascii	"\024\346'j\245\016mPc\243\306\020\353\233\253\271\262"
	.ascii	"\317ZT\223Ju\213\253\256\244\356\337\235c\264\3637a"
	.ascii	"\3213\212\221_\211\376\220\302g\363-h\177\251^\227\245"
	.ascii	"\256(\260\005\233\304\316e\223^\220\377\243JA)\000\035"
	.ascii	",U\372\342\211\354h2\221\032\032I'\222\231T*\223\226"
	.ascii	"yl8\033O\022\306\177\000X\300p\345"
	.text
	.section	.gnu.lto_atan2f.572328cf3668d031,"",%progbits
	.ascii	"x\234m\224]L\034U\024\307\357\231;\263;;\263\273@)_"
	.ascii	"\313bk\"\222\306\004\332\030\037\372\344\253\257\276"
	.ascii	"\351\2031\225h\352\003mR4\321\247N\267\270\260\320\326"
	.ascii	"j\354\307n\335Bk\265 E\276\272-P(\264\240\326TW\250"
	.ascii	"\206 ZB\224J\241Q\321\244\015\"e=\347\336\031>\226\235"
	.ascii	"d\317\316\2349\277\377\371\237;wFc\012\033v3V\316\030"
	.ascii	"\353\304\037d1P\216'\031;\244+\212ZW\306,\203S\364r"
	.ascii	"PeZU4\221\326EZS\334\342\312%\256\\\340\226En\320\345"
	.ascii	"\211\256x\304}C\334\367\200!\323\206b\036\311\303\264"
	.ascii	"\267f7\246M\360\312\264W\361\215\0051\355\037\334\205"
	.ascii	"i\037\370e\332\017@'\226\016\354\240\302U\315\345\326"
	.ascii	"=\206\351\365\371\341 \274\317Oq\030\253\351\370\230"
	.ascii	"\037\343\215\234\201\212\227\177\177\027\373\315O\227"
	.ascii	"\000\333\361\262\346\372\340\244\272\343\242\205\307"
	.ascii	"\320\251\343\256\253\341\367^h\344\012\213bu3\004\341"
	.ascii	"\"\004i\360\026\330\201\265\375\365\267\227u^\002\014"
	.ascii	"\317\217=\250\033W\313>\025\334L\227\313z\012)\370\034"
	.ascii	"\370z\220\204\240\025\312\260<\326W\0332\3706\201\036"
	.ascii	"\372l\361\366*\332m\243\2272\240mPF\365-\3233m\036\376"
	.ascii	"\244`\177\274\267\260\354/\375D\260\343\321`W\330\272"
	.ascii	"e\251\304\177\261\221\247\003\313\027\257\244\006\015"
	.ascii	"\376\264@\023w?\2327mt\004\035_\260\024\002;2\20231"
	.ascii	"\353\206\306\237\021\340\360\367\221\233>\033\374\245"
	.ascii	"s\025\354\312\010\376\332\271r\302\347R\241\033J\241"
	.ascii	"\023\177\355PJ\213\211kx\031\\\300\030_\177\247\375"
	.ascii	"\016\014Y+\251Zk(Yx.\341{\002\030\335UD\344\"\252\""
	.ascii	"j\264\036.\012n\240U\321\031)x\200\026\327`\244d\212"
	.ascii	":/\225\370(\370)dQ\310\246\220Ca\013\205\\\012[)\344"
	.ascii	"Q\310\247P@\241\220B\221\220\011\210X,bPD\306\352q\006"
	.ascii	"\332g\015\370`\360\237\317Ah*<\320\275\227\306\212s"
	.ascii	"=\316\335\354\036\204\266\213)\321\033\246\230(\371"
	.ascii	"\362YYa\304\271g\255\242\235*\0146\0035\023\303\177"
	.ascii	"Fc\260\252b\210u\254\347\234\325\225\361\006\256\212"
	.ascii	"^\2105\275!\270n\3424\342~\036~\024\335)1\015\227\375"
	.ascii	"\322\360\312\"\224\234\261t\302\305\346I@\011\235?\004"
	.ascii	"\015\205\225\276\331\373*\252\343\215\006\344Q\033%"
	.ascii	"\222(\321\277\271\265\213\215\344bk7U\315\301\341\321"
	.ascii	"p\213&k\3148\247nkS\0107&\365 \005\355N\001\212\270"
	.ascii	"\250\203n\333\226O2\316\001\327\342p,|4qY\221R^\314"
	.ascii	"\241\353\377\342\327\"\032\272\256\263\254\354\345T"
	.ascii	"j\033\276\306t4%k\222 \206\270\202C z:\334kJ\320\207"
	.ascii	",\202\255m=\363\272\015\246\326\300\351\305\311\263"
	.ascii	"\022\274*\301X\270e\227\004\375\330\021q\251\026\261"
	.ascii	"\037J\026\346Q-\322:\276\340\267\325V\326\324\254\363"
	.ascii	"\217OJ\265\036G-\262[\202\331B-K\252\315\331\311\034"
	.ascii	"\314\223Zh\252\321\361\306\234\211>H\245\244T\257#\325"
	.ascii	"\373\274\244\266\010\251\034)\025}Q&s1\217RS]g\003\266"
	.ascii	"\322\203uS\316\375\325,\305\372\204Xh\"\334\313%\267"
	.ascii	"\025Q{\356Wd&O\256t\350\\s\322\227n\352\367\307\027"
	.ascii	"\244\3165i\352d8\362\252\244\362\021D\352\356\327=g"
	.ascii	"\274\233\027\246)6f/L\2773\315\277\325\022,\020\323"
	.ascii	"\344K\265\237\336\226\311B\314\243\332@\342\237\021"
	.ascii	"\325V\003g\215\361\220R\003Rj4\034\265g)\022\343\024"
	.ascii	"\246m\267\"&vn2\266s\343\306}\010\330\327tO\316\216"
	.ascii	"*\031_\207\353P\242.\315.\000\356N\217\275\263O\207"
	.ascii	"\343\211\373\366\376\017 4\361\303\207'\2644\177\323"
	.ascii	"\217j\277\221\376\006\241\204\272ot\023`\364E0\322\266"
	.ascii	"\273\"=\216;\036\335\031\035\0159/\250\202\272zl\376"
	.ascii	"\026\016\020\360\364\315\217r\2244\331\221<\351\261"
	.ascii	"-\321a{,F\231\363K\337~\345lUe\223\307\033\344QI\363"
	.ascii	"X,<z\323<r\351q\312\361\350\311\350\361\246\343\221"
	.ascii	"\243\256\301P\314\234\234\237\246W\334\307\306\202\\"
	.ascii	"\354\275\304sR!H\242\033[\007Ek\177Zk\225\375\201\037"
	.ascii	"\264\356\243A\311\251\242\001~\235\320#\"\276%jP\217"
	.ascii	"\337\014\244p\304@yE\365\201\312\212\252=o\356\253\250"
	.ascii	"\334_U\265\177\037\236\277\265\267\272\274\222\301\273"
	.ascii	"\360\216\272\347\265\352\227)\274\304\017\274^\375?"
	.ascii	"\221#\2048"
	.text
	.section	.gnu.lto_acosf.572328cf3668d031,"",%progbits
	.ascii	"x\234m\222[OSA\020\307wv\017\275\321\036|\362A\332\320"
	.ascii	"\007\021y\001\211&>\370\005\374\032\204\230h\302%\001"
	.ascii	"Lx\353\002\365\024,*/\010\024\233\006o\210\200\334-"
	.ascii	"5\021\232\240\006\242\222\340\233\365\022\342\205\004"
	.ascii	"\220\210MD\324P\234\331m\003\0327\351tw\316\374\376"
	.ascii	"3\263\263y\214\263\224`\3548c\354\024\376 \217\001\357"
	.ascii	"\\b\254\331\301\271X\3662\3512\346*\230t\0130\264\333"
	.ascii	"\000\240\215t\000\013pa@\000\256\211n\001\313\301\261"
	.ascii	"\033\342\252\210\011\006\006\036\277\275\214|4\351\010"
	.ascii	"\340\307cpv.e\224\016H\\\311\356m[\334\272t6&8\353\305"
	.ascii	"\350{\340\205\001\360R\356A(\305\330\310\243P\213K\370"
	.ascii	"\200\341\276\371\356\316s\243\344\216\342\336N\330\344"
	.ascii	"Q\244\340>\210\203 \011\301\020\224P\374j\370\351\254"
	.ascii	"]\024)vaf\276\313S|K\261\333}\207\307-\271 \015\342"
	.ascii	"\207\377\346iQ\332\257[)\2478\246\320hOh\310\314\242"
	.ascii	"\353\205\2232\031\364\023\370\340\277\340\207\361L\227"
	.ascii	"\307f\300(\024\303\010\024SS\330\313\030\330\2001\236"
	.ascii	"\363\216\276\202\244\314\354\205dr\265\260\177\304<"
	.ascii	"\004T6\007\252\033\0251\310 \207\235\214\203\214\223"
	.ascii	"\214\213L>\0317\031\017\031\223\221\\\201\352\232]\306"
	.ascii	"T4\2140\036\360_\254A\313{\353]\274\232\262G\205\210"
	.ascii	"\242\3733\264\370U1\230\003]l\015Z{\254\315\370\030"
	.ascii	"\350\030\232\325\343\351\364\023\303\327'\333\244\304"
	.ascii	"\272\230\314-P7;\016>\3426 \350\327\210\035\221D\342"
	.ascii	"\313\033{`W:b\002\257\004!\230\200\000C\271\2300(E\304"
	.ascii	"\352=\243\243\035\010#\260\336\321v;\233\243\023~\357"
	.ascii	"\355\025\345\362t\304{u\236I\360\021y\335\032<\255I"
	.ascii	"'\3024\322\321\350\006d\253\333\335\007W\332\303=\032"
	.ascii	"\234\322`\304Z<\251A\227j\335\251[\375Y\241\235\371"
	.ascii	"\350\247G\361#\271e\313\252e\016\224\321\037y\255\325"
	.ascii	"\246sj\355\005\032t+\265|][\302\243\235\036\364\243"
	.ascii	"\332T:\335\352\376\367\346\326\254E-\3650'\225\020\232"
	.ascii	"2\361\362\220\335\237\311\010\315\304d\237 \2704\237"
	.ascii	"\351;\241\2438\012\017\317gv\250i\007\2751%\026G1Za"
	.ascii	"\234\305\262W\250\336\256$V\270f\012\220\271\371\353"
	.ascii	"\30533[\014\317\335\322v([\314\014\215\321T\002\206"
	.ascii	"z+\233\300q`X5\373\016\200\012\202\343w\236J'9>+\240"
	.ascii	"\020\0249RV\336P_U^Sy\241\266\274\252\256\246\246\256"
	.ascii	"\026\367\215\347\033\312\252\0304\331\352\3175\\\254"
	.ascii	"n\344M\225\177\000\013\327G\020"
	.text
	.section	.gnu.lto_applyDeadband.572328cf3668d031,"",%progbits
	.ascii	"x\234m\221\313K[Q\020\306\347;sn\222\212\217m\221k\021"
	.ascii	"*\004)x\027\376E1\021*\230\010\306\272\315i|\201\266"
	.ascii	"Z(*\021Ct!>Z\037\015nl\005Cu\341\246i\225@Wua-E\304"
	.ascii	"\202XE\244\215\235s#\322\205\007\356=g\346~\277of\316"
	.ascii	"uH\321.\210\236\020Q\253<p\010\352U\221\350yH)\275\371"
	.ascii	"\210L\025\227<2\325\014m\323\320\200\335M\010\224R\254"
	.ascii	"\221\302\030O2\366\372\327\246y\224s,\012\011\317>M"
	.ascii	"}\257\265!\320(\341\321\306\340\251n\2367\262\012\223"
	.ascii	"\323\301L\376\213y\220cE\031\221/\300\305<\\[{\021\315"
	.ascii	"\"\376\2719T\0027\200\344\234\375\272\355\205\347|\356"
	.ascii	"\317k6M\002a\011\374?g}\360\006aQ\257/\274\210\363c"
	.ascii	"\037\374\226?\374\025\270%\177\217\337\222o\357!\227"
	.ascii	"\021\266\372\303w\345\361\232\200\266\035I#+\010\310"
	.ascii	"\235\320\352>\012\246|3d\012ewv\266.\010\277\220\202"
	.ascii	"}\263\3402\276\345\035?M4,\254\275\233\021\361\225\235"
	.ascii	"\217\221>\030|\371aFY\277,sV\362G\350/n\357\340.\243"
	.ascii	"\311\256\021f*y|\002\247\362\301\221\216\372\256\267"
	.ascii	"\316kS\177\315\303\034\353\014K;XE\212\304C\240\034"
	.ascii	";>\245\375:?P\271\201\254\250N\221\236\271\031u+6v\206"
	.ascii	"\013@\314&\006>~\016\332\377\241d\2065\270\352\375\345"
	.ascii	"\025\244\016\333\256a]\024Q}\213\227\354\216z\361HG"
	.ascii	"\302\213v\305\343]\0119\367<M\266D\311\351\215t>k\017"
	.ascii	"\305\332#\261\266H\"\366\017,\214\232\267"
	.text
	.section	.gnu.lto_constrain.572328cf3668d031,"",%progbits
	.ascii	"x\234m\220\317+DQ\024\307\317\271\347\276\361#\303^"
	.ascii	"F\024M\263\361\254mm\374\033\232\205Q\236)3e\241xB\032"
	.ascii	"SF\230Df\246Y\010o\374\030[\244\221\215\024E\217$Y "
	.ascii	"!\026\024%5\234\373\274d\341\325\353\236\357;\337\317"
	.ascii	"\367\235{4\020\260\203\000\001\000h\345\027=\200b\342"
	.ascii	"\010`\260T\010m\273\026\314r\262u0+\310U\322Q\022\265"
	.ascii	"\037\223\206\250\012\263\024a@\220\324p\000\0234Cx<"
	.ascii	"\234\237\247q\312\020\240d\371r8wS\251$b\035\313\323"
	.ascii	"\351\265\\E`\321\344\2470c\227$\207F\3322$`\226\335"
	.ascii	"KX\203\213X\243FY\306\000{\357\255\315D\031\371\020"
	.ascii	"\270N\330\373\273\232\177\301\341.'\311l`\012-\244\277"
	.ascii	"\240\012\302\034\372\331\236\314o=I\252w\320\364\307"
	.ascii	"\201U\356\242\267S.\272\362\017\272\352\240Vv\344BR"
	.ascii	"\243\203\276\356\307\316\274.\3724\355\242k\377\240"
	.ascii	"\353\350W\376\353\215b\322\353\221\352:|\213<zx\277"
	.ascii	"\260~\202\005\263\3705j\026\256j\263\017U\374\215\021"
	.ascii	"\201jR^\012\377T\242\303\303\030Sj\245qN\344\223nq\370"
	.ascii	"h\357.\335\254\202R$R\244RU\233\300\326U\367|\357=\335"
	.ascii	"\362\333\225Nw\214\317\230\217\342\2449\031\317( Ej"
	.ascii	"\2147DN\020\233\237\005\345\245\307>\206\244\325\317"
	.ascii	"\000*\247\000\250n\322#=A\335h\357\354\326\203a\303"
	.ascii	"\010ws\035\015E\232\202@\355F\224\272\302\2752\324\331"
	.ascii	"\021\372\006\200\313\234P"
	.text
	.section	.gnu.lto_constrainf.572328cf3668d031,"",%progbits
	.ascii	"x\234m\220\337+da\030\307\237\357\373\274g\014-W\256"
	.ascii	"\304\242h\232\033g\257\335\272\361oh.\2142\246\226r"
	.ascii	"\351l\015B-7\362#c\314\2240X#\254\362\363\024\355\035"
	.ascii	"\265\333\\H\233\013\\H\250\015ks\201\347={\222\013\247"
	.ascii	"N\357\363=\317\367\363=\317\373X\244\310\005Q\230\210"
	.ascii	"\032\344E\200\240\206\016\211\276\004\225\262\266>\222"
	.ascii	"S\304y\233\234\017\354+\355)\015\353\277\311\002L\341"
	.ascii	"\004A]\212\265\205.\014\362\010\343g\"7\301_9\305\004"
	.ascii	"-\362\317\301\370Y\211\221@\225\310\304\316\356\261"
	.ascii	"\016\3178\362\270#\377\012\326{\272\033S\254hL\334\263"
	.ascii	"(\307\014\312\315(s\010\213\367\"\2731X\310\025 \251"
	.ascii	"\247\276O\236\353\320\264\307\355\257\004\234\032\241"
	.ascii	"\220\005\277\005M\020\346\021\022\373pn\363Js\265\207"
	.ascii	"n\273\267'A\037\375\275\352\243\013\357\240\213\036"
	.ascii	"\232Mw\037k\256\365\320\233\321\374\003|\364n\315G\277"
	.ascii	"\275\203.!d\374\247\313O\303\305\001m\256#\267\310!"
	.ascii	" \373\245\245_p\235\247\347^\307\275\251L/\227\3127"
	.ascii	"A\024\314\244\262\024\371\251\206\307S\277Pf\245\003"
	.ascii	"\222('\237#q\270\3677\365\311\004%Y%\331\244\2326S\336"
	.ascii	"6\335\243\275\037\263\365\257]\355u\373\345\354\253"
	.ascii	"\340\001\266\274\214k(J\262\031\343\036\220\004\365"
	.ascii	"\370\354\032/g3\"\225\276\314@\020\030\257\"*\253\263"
	.ascii	"\333?G\354XSK\233\035\211\307b\3616\251;\242\355u\021"
	.ascii	"\342\246X\007\267\306;u\264\2459\372\002\377\327\235"
	.ascii	"\262"
	.text
	.section	.gnu.lto_devClear.572328cf3668d031,"",%progbits
	.ascii	"x\234%PMKBQ\020\235\363\346\371AT\253\026Q\006.\002"
	.ascii	"\263\205o\335\317)\013j\241BF[\257\222\031\006\025\364"
	.ascii	"\241\205\362l!fe\326&h\021<\244\010\202\212\2026A\233"
	.ascii	"\244\257E\213 pg\315\265\201\341\316\314=\367\3149\327"
	.ascii	"E\006\215\201\310OD\203\222`\202\261vK\224\364\032\200"
	.ascii	".\224\027\2240\220\300*\347\030\215\314\333\231\021"
	.ascii	"\254(\011'W\350ZT\351~\233\211\266%u\240\202\240\240"
	.ascii	"\356\027\216\013\274\3026\003\246\264\3377;\315^\335"
	.ascii	"\032\360K\333*V\013\314C \251\367\037\237\312\236@Y"
	.ascii	"\251\224r.\326Y\015\333,C\260\020\242\012\037\366\340"
	.ascii	"#\031\021\016\020\320\370\227\223\366f\217\333\374_"
	.ascii	"\210C\270E;\325\037\340\250\366oF9\355\221\335\327>"
	.ascii	"S\224k8e\005\244-,\263\241O\376D\352\347#\177\351\321"
	.ascii	"\357\204k+\335\270\363hY\334\221\322\272\272^\352\266"
	.ascii	"QL\212\267\322\204l5\213\"\270&\002\364\355\363y\363"
	.ascii	"\224\255\2326\356\267\331\205#\330\310w\\\243\016\013"
	.ascii	"\243>\372B\252\364\276\001M\336\371\213\254\320\312"
	.ascii	"V\203h d\305g\303Vd|&j\205c\221H,*\365\334t<\024&\236"
	.ascii	"\234\232\377\003\027\242o\216"
	.text
	.section	.gnu.lto_devPush.572328cf3668d031,"",%progbits
	.ascii	"x\234\245TmKTQ\020\236\271\347\334\335\325}\303\325"
	.ascii	"@B\301\"\220%\362\376\003\377KYP\037T\320\210\276y]"
	.ascii	"u-\205\212\300\3256\227k\201\371\236Zfi\231\233f\313"
	.ascii	"\026\275RAB_\262\244\015\372P\037\322 \254\231sr\227"
	.ascii	"D\022\365\300\235{\356\234\231\347\231g\346\354\232"
	.ascii	"`\300U\023`?\000T\322\203.@\343\3023\200F\217a\210T"
	.ascii	"\020\354|\231\256\004\333'\320\324n\271\2761\021yc{"
	.ascii	"\020\032\014!Ml\300\363\242S\340\\\353\362\224\021\356"
	.ascii	"\263i%;'\363\243vK\261#\000.\321\303\013\3730LQ/\233"
	.ascii	"\307\272\3059\341\010DI\237\337\236\306\227\002\374"
	.ascii	"i`\031}\256$\006\272\205(E\240\375\340\233\305^wy\257"
	.ascii	"mG\354\344\257\213\302>\340\010r\242 @\034\300\022\354"
	.ascii	"\307\022 \027\340\020\226Sx|\2725\222/\366\251\324\306"
	.ascii	"k\253O$\247R)\257'\\\234*qxc\252\004\034\301r\216\377"
	.ascii	"0\276\326\341wI]+^G\027\322{\364\025&\355\265\337\255"
	.ascii	"vr9|efO1ULL\222\022M\223\215\0339\335\313@>6~6\0016"
	.ascii	"A6\005lBl\012\331\024)Bh#\006\356^\2730\370-2\030\231"
	.ascii	"\316$Z\\L\232\020\334\221X\313\334s7wD()+\251\307g|"
	.ascii	"\016&\032IK\231#(H\340(\225\317g\357g\226&\2055b\353"
	.ascii	"#\023\307\320\301.\325n\034G\0132\330\024\213\276\023"
	.ascii	"\032\332$t<XB\316H,\217]\033\260{\216\300\026\3507r"
	.ascii	"\3507\321\"D\370\210\315\213\363\337\303\177\011\030"
	.ascii	"\235W;\315$\025de\361\214\363)\264\031\327\027\374?"
	.ascii	"\231\304\011E\306c\300[L\346V\205\247\017m\206V\267"
	.ascii	"\025\330\244\0023\030\354v\026\354\307\347\376^\357"
	.ascii	"\216\340\356(8uU\246\320\242\200\341\371\265U,\275l"
	.ascii	"{X\276\272W\323X\252:!!]\251g<\270\020\320}\362nk\250"
	.ascii	"\022\357\346\212\277\247\207\332\025=\353\325X>\322"
	.ascii	"B\210,\347m\364\247_;\375<\032\012{\021E\355\010\250"
	.ascii	"@\277\276\017Sy\332\031\244<:\332M[gr3\272\317m\015"
	.ascii	"\202R:\264\256\264`\233Jgs}M\256+M\0075VH)e\206\246"
	.ascii	"xVi\241\022\026\372WX\021\021\323\321n\204=P\205H.d"
	.ascii	"\216\205\025)\260\314\360\016\357\313|n\202\017\263"
	.ascii	"}\212eFv\010\267\220k\323#]\035\3374S\375\235|\305H"
	.ascii	"\317l\207\232\273\372-\266\321x\310O\334{+\254\372\272"
	.ascii	"*\253\372\360\211\032\253\252\266\272\272\266\206\366"
	.ascii	"'\217\327WT\2018z\354\024\236\376\003\265\244\317\340"
	.text
	.section	.gnu.lto_devVariance.572328cf3668d031,"",%progbits
	.ascii	"x\234\225P\277k\024a\020\235\367\315\267\267\2333\211"
	.ascii	"\225\215\334\301\025B\210!\331\306>\255\3713\344\024"
	.ascii	"bq\011\030\261\315\227\363r\212\202\012br\321,\213\305"
	.ascii	"\021/\346waHD=L!\012\376\004\203\004\323\2304WXD\220"
	.ascii	"\244:\235\331\265H\353\302\356\276y3\363\336\314xd\350"
	.ascii	"\254!*\020\3219y\341\021\314\275\017D\023\2011\\\033"
	.ascii	"$\227\265G\335\344:\0316\245-\240\300\005\240q\303\026"
	.ascii	"\343\270\313\323\214\317\225\225Y\276\3031\023\254\204"
	.ascii	"\007\357\037\356uk\010\024$\254\274|\265c{\347\234<"
	.ascii	"\315\351_\331\365\352\344\371\230\015\315H\365\023\344"
	.ascii	"0\207\234z7\320+\265\207Qc\2269\017\022<\377u\247\356"
	.ascii	"\367\324\235+\273\346\376}vgb\026\022|\274Q(\302S\364"
	.ascii	"h\375\217\325\366\203\256\214Ua\321[@\006\362_\376\202"
	.ascii	"\246k\377\271\341\232\333}\217\017Nu@Z\214\014&=V\240"
	.ascii	"\3654\316(\362\025\005\372!\272%\022\272\350m\011\344"
	.ascii	"\317-\2247[\317\353YU\215Xw\234\232|\375\321\327\035"
	.ascii	"9\231\365\360\315\273\233\2351\242\011Y\262\020\263"
	.ascii	"\027\011\277\250\213In\367\305\3363\016\027]\232\262"
	.ascii	"XB\214\232\316HXFH\373\250|\333\372\356\377\223F\237"
	.ascii	"^C\235\231j\203\211\361\333\2414\347\375\227\217\301"
	.ascii	"J\342\243G\300\252\370\264p}\252\332\352J\265\022\253"
	.ascii	"\376\234\220\345\355j\343DJ\372\302k\331\247\352\306"
	.ascii	"\311\224\011\"\265\360\223ylr\211\237(\027\322\234\012"
	.ascii	"\377\006\244\210\215\270/l\265\217\220\177\344\002\235"
	.ascii	"^\217\2105\344\215\221SB\033\345\250\247\007\302\261"
	.ascii	"+\305\260t\341\362HX\034-\225FG\004_\035\036\033(\022"
	.ascii	"_\274t\355/\346\011\263{"
	.text
	.section	.gnu.lto_devStandardDeviation.572328cf3668d031,"",%progbits
	.ascii	"x\234U\220=K\003A\020\206\347\335\271\217 hi\241\021"
	.ascii	"\256\020B\020\222\037a\343\337\220(hq\011\030\261\275"
	.ascii	"5\234\012\012j\241\206H\302)\022b\374\266\2224z\177"
	.ascii	"@A\301&vZ\032\013+\033\215\316*\202.\354\356\274\313"
	.ascii	"3\357\314\254M\212FA\344\021\321\240l0A\255\337\020"
	.ascii	"\315'\024`\002\235\000\005\012\001\326\270\314\270\015"
	.ascii	"\317\252\274\312\221`\226\310\327\353\355\247>#\001"
	.ascii	"Odxy\325\266\322\015-+.\277\367\\,.\214E\254\250\"\364"
	.ascii	">\222h iJ4\221\026\366\255\326\2542\017\201$>\270o\327"
	.ascii	"\335T]\353\222\216;\033\254\207#\226G\360\337Dy\"\034"
	.ascii	"\"e\370\307\363\356f\257c\031c\361;\202#\023\320\351"
	.ascii	"\035b\335\375\\\322qwd\267\336\357H\377\202\263$*\333"
	.ascii	"\034D\313\202\233\221VD\310\315\317\010w\366\266\222"
	.ascii	"\306\240\306f\272V\253\363\340\006\037:\021\261Ua1\305"
	.ascii	"1\002\252\261\212\330&\241\275\037\324\376\217:\025"
	.ascii	"c\216\223oT\376\302\245\027\224~QiL\352\302\324\023"
	.ascii	"h \223-\316\344\262\376\370t>\233+\370~!/\361\354T1"
	.ascii	"\223#\236\230\234\373\002\256:n1"
	.text
	.section	.gnu.lto_degreesToRadians.572328cf3668d031,"",%progbits
	.ascii	"x\234-\220MK\202A\024\205\357\231y5I\372XD\213Rr\021"
	.ascii	"\210\020\372/\242}\277 L\252\205\012\332\3367S\213B"
	.ascii	"kQI\226X\213\260om\025m\352]\330\256\014%\002\2036\005"
	.ascii	"\221DP\253\026\221v'\035\230\231{.g\23633&\0224\016"
	.ascii	"\242a\"\032\344\011I\020\253e\2429\213\000T\241[@\021"
	.ascii	"\201\010VdZ\242\022+n\313\224\314\261Mc\371u\233y\351"
	.ascii	"V\022p\260\214]^=j\256\274\316\303HoX\317\023\361\261"
	.ascii	"\234\024\264\311\356}\330\220\207ME\034\300\305\336"
	.ascii	"\353\346\267\321\323\"\011\226\325\317\233\254\265E"
	.ascii	"\352eyw\377V\352\224v\020\327\265\367\312\250s\357\037"
	.ascii	"Z\212I\275/'%\216!\025\365\210\251\207L\345\026\341"
	.ascii	"\004Ne\177>k\254w\2315\225\312a\2470\363\363\250P\205"
	.ascii	"\2417\232\013\272\361:\262{\321o\002\224]\360A!\325"
	.ascii	"B\264\304v\365\336e\026\274\313:\242\017\211\247Z\021"
	.ascii	"\012\221\225\"+Au\314g\022\355\206\344\036\247\305\223"
	.ascii	"ke\315\276\245/\352z\357O\2639\304\037\246\306N\362"
	.ascii	"7\005\305E\001v\372@\324\321>\305w\341(\250\010\016"
	.ascii	"\035p{\302!\257\307?1\023\360x\203~\1770\300\365\354"
	.ascii	"t\330\355\245\216I\337T\310\347\013\377\001\347\223"
	.ascii	"z}"
	.text
	.section	.gnu.lto_scaleRange.572328cf3668d031,"",%progbits
	.ascii	"x\234m\222\317k\023A\024\307\347\355\313\357Ms,\242"
	.ascii	"\021s0\206\036\322\034\304\243\350E\360\342_\340)F\301"
	.ascii	"\036\222\202\351!\267n\223\272\301*\325\376JmhHk\220"
	.ascii	"\330\326m\0235\265x\312\241\207\026i\325H\021\251\226"
	.ascii	"b\355!\376@\004\005\017\222\372\336l\"\012Yvw\346}\347"
	.ascii	"\373\2317of\254B\021\347P\210\263B\210#\364\001\012"
	.ascii	"P\356l\0121\340P\000\270\2439@\364+\320\017\267q\022"
	.ascii	"\341\325`i\032\2071O6\013\205\3377\262{\036\016\001"
	.ascii	"|\024n\215/.\270\273\212\032=\325\311\222:\221\272~"
	.ascii	">\217\212\230\"\367\003\360B\021\274\234b\016\272\310"
	.ascii	"\233}\226N\272\360(\010\352\217\026f\362\326\300}\311"
	.ascii	"}\034E\3558Q0\017\370/\310\023\301\002\004\310\236\034"
	.ascii	"9H{\360\230D_~\036\333i\241\357\306\232\350\3036\250"
	.ascii	"!\321B\352GE\301\023\022\335Z{q\243\205\376\036o\242"
	.ascii	"\213m\320%\211~\371\365f\325\205A\211\032\003\365\214"
	.ascii	"\263\2255\323DKm\320\262Dg\357\225\263\036<%\321\367"
	.ascii	"\345\271\347-t\365\320\224V\2650\373\250\015\373\030"
	.ascii	"\002\014L\353\363\373\210\247%\274\367i\267\010\376"
	.ascii	"\202\204w\014\357HJ[\323\210Gx\362?\317\017\331wo-\033"
	.ascii	"\035xF\242\215\327\337jj\023\255\005)\357\240\217\301"
	.ascii	"\345\266\340\207rc\242\303f\201\247\340\207\012\370"
	.ascii	"\371\004\351\340V\300\006B(-u\251\006U\255q\220\326"
	.ascii	"\252\233\301\331\237\235\036\000^2]\033*\032\251\004"
	.ascii	"\264\000\037\230\025x\357m,\330\005\263\016\340\035"
	.ascii	"u\012\236\303\305\262\312?\267,Z\014Q&\276v7)\240\026"
	.ascii	"\353\220\272\253\033\333+\012g\317!\346\020r4$\345\365"
	.ascii	"\223\246H\257%\207V\026\263z\035M\321.\3156\261\017"
	.ascii	"I\237\\9e&\325$+\027M\2233\207\016&\377\232*lr\262\251"
	.ascii	"\244ol\317\200is\311\351\234&\373\326j\212\252\324\221"
	.ascii	"\305\214\276\256\232\242[\256O\025_\233\023\222\302"
	.ascii	"[:\204\300\325P}\207\273C\361k\221P4\334\023\013Ez\243"
	.ascii	"\321\336\030\365\373\256\306\273#\002\0226\032\272\320"
	.ascii	"\023\223M8a\277|%\336G\241\331\206\023p\011\302\177"
	.ascii	"\000\200\256\013&"
	.text
	.section	.gnu.lto_normalizeV.572328cf3668d031,"",%progbits
	.ascii	"x\234\245S\335K\024Q\024\277g\356\354\314\272\253\256"
	.ascii	"(n\022\032\006\231\010\341\364\320?\323c\230d\220\012"
	.ascii	"*\275\364\260\327M\327\374\240zH7\265m\224\010\263\374"
	.ascii	",\263\326\2646?(\205\314b\211D{\311\014\026\315\210"
	.ascii	"\202,\310:\347\336]\226\244\036\026\207\2313w~\367\234"
	.ascii	"\337\371\235{\3168\230\306\332\034\214\035a\214\035"
	.ascii	"\303\007\034\014\264\313\213\214\325;5\215G-&\\\372"
	.ascii	"\344\001&\3229\350\012\326\001h!\234\300|\032\327\301"
	.ascii	"\007\227x\220\303t\323\307\260V\322'\360\212\004\227"
	.ascii	"\334\001\321\230gs\306:\361\241\013\372\240\004\275"
	.ascii	"^5\214\\\343\027\271\315\001t\374\374\362\242k-\223"
	.ascii	">5(\304\317\331\201\336f\027/\000\206\353\345P\373\230"
	.ascii	"\243\370\246\020~\021Y\275\302\305!\233s\270\015\034"
	.ascii	"\011\241\037\362\341\026\3443\204\030\334\201bt\377"
	.ascii	"y}\256\331\340\007e\250\375\255\375\255\031\017\215"
	.ascii	"\006\343\241\003\377\010\035\204b\362_m\373:\011\374"
	.ascii	"\260\214]X\350\357\366\024\335\220e\274\031\362\216"
	.ascii	"\006\304s\241\333X\346\320\337\361t\241\373\373\321"
	.ascii	"\235\366\014C\207a(R\245\302\010\030\200/B\206_CD\354"
	.ascii	"\374n\022\221\305\322\336\330\276<,\032\305\352\230"
	.ascii	"[w\2201\310\230d\234d\322\310\270\310\270\311d0\342"
	.ascii	"\310\244\245\207L\026\220\336lZ\346\220\311%\343%\303"
	.ascii	"X\013\246\246\246\264r\215\336<\006\376\211\330\346"
	.ascii	"\272\233\324\2048\235tG\343\364K\223N\232\3132\277?"
	.ascii	"[\270\220nC\250\036\353,\264\271#\204\370(\225\205{"
	.ascii	"\357\246\326\306\2715(\324\226\016w\301\206\253\262"
	.ascii	"\215p\017,\026\203\363]\201\260\251\2501P\307\233Q\302"
	.ascii	"\371\343\0123R\344\037\223\374@\374\367\023\374\313"
	.ascii	"q\351&\322\341M`G`>M\201N\231\327TI\317),-\305\244\343"
	.ascii	"2\251FI\037$\222\376\360(.\027\322\341\255\222\306\270"
	.ascii	"\002\3352\257\213m@CO\215\2022\2207\034\336\\1}\277"
	.ascii	"\204\323\346F'\025\001\017\301\307\320\335F\201\353"
	.ascii	"\340/\224\003\201\215Dw\366\001\032Vf\266\206\216&\303"
	.ascii	"\007fv\266\241\240[8\351x\251\225\020\206\0029\\\255"
	.ascii	"8\240QKurk.~\034\231)V9\221l\335#U\345R\240?\336:\017"
	.ascii	"\322\221(\314\3201_B\330.\362\236\263L\322g\375\227"
	.ascii	"~2I?\005\026R\312\226\304>'\344f\247(\367qr\022\236"
	.ascii	"\354\226\233\203t{\224\033I\322?%\2719J\356vBnn\212"
	.ascii	"r\247\22334\263[\256\027\351\366(w6I?Gr\275r*t\371\203"
	.ascii	"\177\002\177\317F\020\210WNK\013\226\2058:\357/\265"
	.ascii	"jk\312\254\312\023\247\253\254\262\352\312\312\352*"
	.ascii	"\\\327U\324\226\2261\216\033\372\311\362\332:\343Ly"
	.ascii	"\325\251\272\212?\010\243\306\310"
	.text
	.section	.gnu.lto_buildRotationMatrix.572328cf3668d031,"",%progbits
	.ascii	"x\234\225V[L\224G\024\236\363\317\336w\001\255$\022"
	.ascii	"nY\302\255\332\304\215\351c\373\332\227>\364\245/}\351"
	.ascii	"\003\245Mk[0\001\037\320\027~A@!\226\266*\202J\227\306"
	.ascii	"\242\265\025\001\201\312\012+\027\271i\275\024Z\212"
	.ascii	"X\260^\270H@L%\250E\304\2363\363\357\362o\371c\273\233"
	.ascii	"\314\331\231\331\363\235\363}\347\314\014\230\231\302"
	.ascii	"\272\234\214}\306\030\213\303\001\234\201\362\3455\306"
	.ascii	"v\333\024\000\232\2506`\371\012\344C9?\314\241\273d"
	.ascii	"\312\247l:\251\342\247\363\360Sg\261Z\024\343\345\214"
	.ascii	"U\341\240\017\234\204M\3505\270\247\341\030\377\202"
	.ascii	"{9\200\011\227\177]=r/\222\226\012\270qy\177\340\361"
	.ascii	"\244\215'\000\303\371\350\243\207\355Jz\255\252\026"
	.ascii	"\250\235\313\007\271\232\342\345\034~\000\216\001\341"
	.ascii	"\024\304\303\367\020\317p\213\301\217\220\216\356}\205"
	.ascii	"m]f\236,\240OW\306\246l\032t\242B@Mp\372\337P\023\203"
	.ascii	":H'\377\351\273_\317F\362\315\002\353\237\231k\200\324"
	.ascii	"\343B\306J\375+-\305\352\200j\362r3\234\011\305\323"
	.ascii	"\007\335g\306\246*\354\374u\001]:\321Td\321\240\313"
	.ascii	"M\026\365;U!`\203!p\270|e\332\311\337\024\300\257\356"
	.ascii	"<j\265j\300\271\263A\340YC\340\224\377\233.'\177K\002"
	.ascii	"\017L\266\2734\340Xc\020\330l\010\354>X[f\345\357\010"
	.ascii	"\340\342\243+\365\021\032\360\261^\345O\206P\377\201"
	.ascii	"\243\003v\376\256\200\356k\256\273\031 ;\326\034\314"
	.ascii	"\331j\010\364\215\024{\315\374=\001\274UVu;\220sn\265"
	.ascii	"<\347\015\201\307\206\217\276\315\337\027\270\236\221"
	.ascii	"\366\275\346@YW\253\323n\210k\2379~\306\305?\020\300"
	.ascii	"\312\371\252\245@\302+\253\300\013\206\300\331\242\322"
	.ascii	"\303v\376\261\000\236xV7dZ[\326NC\340\335\306\225C\021"
	.ascii	"\026\023tA*t\340\360\343h\303\341\303q\016G\013\216"
	.ascii	"&\034\2158\352!U^\010\350\006\0130\346\370\277\250\372"
	.ascii	"!\350TW^\224\250\235\363\236o}\011\257\342\015\304c"
	.ascii	"\317\361\024\233\361\030c\0203\2430\026\332\2602\212"
	.ascii	"fc\024\317N\033\016Fa\235\214\002\273\030\205\216`\024"
	.ascii	"<\222Q\370(F\011\326\221\343z\240\033\261\201\246\321"
	.ascii	"d6\222\211!\023K&\216L\002\231D2n2Id\222\311\244\220"
	.ascii	"I#\303X)j\244\027\242\214+\364\315g\240\340\374\314"
	.ascii	"\276\022+\311\256\346\364ZT\024u_\267\322\305\347\242"
	.ascii	"\342O\372/\357uy\241z7\226\274\346<`\024\364S\340\""
	.ascii	"\225\031\177\256\235(8c\365\324QC\334^n\205\036\360"
	.ascii	"B%\327\032P99\335\353\222?\326\344P\237z\301S\211a\261"
	.ascii	"\312}\340a\263\260\247\346S\231\230^\234\302\245\216"
	.ascii	"\205\310\374\347*>N\266*\362\202~\310gH\312\313\355"
	.ascii	"l\022\012\334\2425XQt\027\330S\361\022l^\003V\020<`"
	.ascii	"\000\356 \260\231\011\321e\001\321\226\360U^z\251\312"
	.ascii	"\313\244R!\225?\207\252\264\032\252\274\"\210ZB\210"
	.ascii	"\372\211\250U`\0335\2256C\225W\015\300m\004\266I\225"
	.ascii	"\373\003*\355\341\253\274\366R\225\327I\245\2701\277"
	.ascii	"\204\252t\030\252\034\024D\355!D}D\324!\260>M\245\323"
	.ascii	"P\345\220\001\370\034\201\235\250\262\360H\361\376\205"
	.ascii	"<\011w\341\331\240\220A\257\026\362rI\257C\271\322)"
	.ascii	"B89W\235\232\310)B:\325jN\221xPB\"5\222S\244tj\321\234"
	.ascii	"\242\204\223.R=9EI\247\361\205\011\220n\353\260\227"
	.ascii	"\024\013;Rqi3\355\351\357\231i\355=\313\306\3268\252"
	.ascii	"\371z\370UkM\317\274\177\336\265\265^T\177\027U\377"
	.ascii	"7\354\015l\026O\035\014\303V\314A\321o\024?Xh\320\222"
	.ascii	"n\240\003$\210\234\322\216@4R\305\375P\032a\346\375"
	.ascii	"\235\362\276&\363\216P\336h\021n\306\333\357\320\002"
	.ascii	"\366\276x\322\031E\272\234\240\374g\374\321=Ko\350\303"
	.ascii	"\217R\370\033\362\011\207\233\024\337\246uxqB\221*6"
	.ascii	"\342\236\326\210\212\342QMZ\214\350\352\306Pi\205\027"
	.ascii	"G\033m\262\302.\\V_\030\314XC\344\017\215H\353\3741"
	.ascii	"\267\236\310\230\256\276\343\304#F\362\250\016\362\210"
	.ascii	"\025<D\257+\203<\342\304\021\214\015\345\021V\342[\272"
	.ascii	"\002\377I\211\343dc\353\026\003\215M\220O\230\256\261"
	.ascii	"\211\342|%\204\221u\245\246<^\237\365\266\276\356w("
	.ascii	"m\242L\341_\234\323\364\272\205^\227\324\373\267\226"
	.ascii	"9I\334\001wh\346\205\323#\345\016Y\367\030\\>\237\\"
	.ascii	"^\266\257arWc\362\360\332\365g\\O\345\236\256\362\023"
	.ascii	"\304$I2\271\032d\222,\230D\310\023\020`\222\"\256lr"
	.ascii	"(\2230SO\352j?E\251S\264\233\274\030\270\311i\342\351"
	.ascii	"\260\206\223e\240\257w\334\244\3172\255\257\365}J\223"
	.ascii	"\306\036@AM[\265H\"\376{)\3057\023\377<\343\333\027"
	.ascii	"\273\305\223\233\223\351\311\312\330\226\355\311\334"
	.ascii	"\236\225\265=\033\347;>\311\335\222\311\314\037~\364"
	.ascii	"\371\216\014\013.s\266\345\331r\267e\357\302\221g\313"
	.ascii	"\334\236+'\264\203\013\271C\023\023\355\230hE\263\235"
	.ascii	"4\333I\263<\232\345\375\0030\252\312\210"
	.text
	.section	.gnu.lto_rotateV.572328cf3668d031,"",%progbits
	.ascii	"x\234\245\226\357S\224U\024\307\357y\356\376d\371!\012"
	.ascii	"\211\374\012\371\021#\225;\364\312\251w\275\353?\250"
	.ascii	"\3364\0165\2233\241\2152\216\357xX~\350`Q\020\242\030"
	.ascii	"\314\242\024\202I\010\024\272.\340\262\240\260\210\""
	.ascii	"X \241\206\020\"\203\221\362\"\002\015:\347\336g\007"
	.ascii	"\366\201F\007\237\231=\273\367>\347~\316y\316\367<\367"
	.ascii	"\256\221)\354v\020c\3571\306b\360\003\234\201\362\365"
	.ascii	"\015\306r,\012\000\375P-\300\262\025\310\206\257\370"
	.ascii	"q\016\336\303\017\\\312\2163*^\236\343s\241\005j~\224"
	.ascii	"\2233V\216\037\272\340\014\354@\257\201\274\363\025"
	.ascii	"\274\210;9\200\001\207O\256\237\234\010\245\241\002"
	.ascii	"\0118,\250\356\\\010\341q\300\360ws~\3319[\352\367\252"
	.ascii	"\352P=]\245\\Mvr\016g\201#\020\352 \026j!\226\341\024"
	.ascii	"\203\037 \025\335\037\366\374=i\341\257\212\245#s\177"
	.ascii	"\265*\376\245eb\251\001\316\351\227\032\030\324C*\371"
	.ascii	"\377\323:pZ\221I%\343\360\254\347h\017\227IU)8\276\232"
	.ascii	"\353\3560\362\024\201\236\357^p\207\245T\253\036|\312"
	.ascii	"Y\367+\305\252\332\243\032\234\334\010\347%\276\001"
	.ascii	"\361?\"\236.t\177\372\260t\004$9\030\207\016\367Hq\230"
	.ascii	"$\217\211D\357\347t[\371\033\202\354i*\2352!\231\352"
	.ascii	"w\317\035[\242\221M\360\223$7#\271i\205<\336\270t,\304"
	.ascii	"d\200\237!\005\032!E\326\031Z\300\004\214\031h\006}"
	.ascii	"\332\026\237-p\373\233Nn&\267\023\\[Z\3267Qk\340o\211"
	.ascii	"\250m^\257\303JQ\363T\317\211\\\245\307a \357\213\201"
	.ascii	"\265\202\013`'\272k]*H\352\243\362\274o\255\374mA\235"
	.ascii	"z\366t8d\015\325\255\243^\222\324\326u\251\212\244\266"
	.ascii	"\344\335\252\261\361w\005\325\327\377]]\320\032j\273"
	.ascii	"\216\332&\251\227!\245a\020<\352\322\362a\3253\364\316"
	.ascii	"\251\306\370Tl[\354\025\224\002e7b\003\230Md\314d,d"
	.ascii	"\254d\202\310\330\310\004\223\011%\023Ff\023\231p2\233"
	.ascii	"\311l!\023A&\222\314V2Qd\266\221\211&\023C\206:\315"
	.ascii	"\034G&\236\314vQ\305D\361\324I\"\313d\240\231\024\240"
	.ascii	"\231\327\200f\030+D\251\350\015;\212e\300o>\015\216"
	.ascii	"\305\302\266\371\213@\002W\362\355$b\276\267\337L\255"
	.ascii	"\304EmjJ\\_\230\235P\231\203\355\223\200q*\261\305<"
	.ascii	"X\022\364g\320\001N`\223\340H\020\375\201\321\020\301"
	.ascii	"\004S\003&\"\241c\254\351\211M\002\351\315\354\2558"
	.ascii	"\225\027\244\003z\375\300\316\000`+\001\023\003\200"
	.ascii	"IH(\\\034.\262H\240\005\207\023E>\267U\007\354\362\003"
	.ascii	"\257\004\000/\0230\211\315@~\325r\245Qx \300\345z4j"
	.ascii	"\316\376W\2658\271\245\234\272\016\256B6\253\344\264"
	.ascii	"\371tUw\216\032\360\036^U\247\025'\267\322\033 \321"
	.ascii	"\335\220\355\344A\224]\373\264o*L\346g\3045\215C\217"
	.ascii	"\037\363\364\006\261f\016\234\334&\326\244\305jo\311"
	.ascii	"\005Wg}\230v{\011\250\323z ]\273\015>HGb\356\311\002"
	.ascii	"\237Q\002\211\251U\265\335wH\316\231uAZ\270?\310\353"
	.ascii	"\353\005\031\347\024\244w%\3105\177\220\021\233\004"
	.ascii	"Z*\251lT\351\334\262\002\227UNZEp\213\214\\\307\345"
	.ascii	"d\020\262\257,\317{\304f\023\014\264\213-\315\316|\243"
	.ascii	"h\241\026\203\375\231\364\201?\225\362\356\221e\377"
	.ascii	"\375\232\020J\345\372J*7\374\251L\247\313\0006\214A"
	.ascii	"\032\211T|ZU\203E66J\245\314\027Msb\307\354=\022\254"
	.ascii	"\351^\025\355\244dEk\212\240w\333&Z\270\275^\325z\002"
	.ascii	"\372\261\017\344>\0057\301\216D\251[\257_\267\320\215"
	.ascii	"\3506\200\317!+\016\203z\335\302\220\251\327m\323Ft"
	.ascii	"\273\265\022\344\027\275n\341\310\\\243\333f\021<<P"
	.ascii	"\267-\033\022\352\327\225\330Cz\241\"\020\272F\250H"
	.ascii	"\021>\342%\204\032\026B\321\326\017\267I\250H)\3245"
	.ascii	"\277P[\237/\324\300\245\271\012S\200P#\370\034\332s"
	.ascii	"\302oz\245\242\020\252Wj\333\363\225Z\035E*5\272*\312"
	.ascii	"\035\275T\321\010]#U\214\210\036\035(U\354\013H\265"
	.ascii	"<XQ\317\003\244\272\273*\370=\275VqH]\243U\274\210\037"
	.ascii	"\367\022Z\375.\264\242\003\025\306H\253x\334i\025\015"
	.ascii	"4[<\323`H\253\025\377:\206\372\224\346*\334]\315L\373"
	.ascii	"\313v\037\322\320\345K\365\3461\353\256\026\365\010"
	.ascii	"i\304`\034v\371\327\323QBN\377\303\3033\032V\321&\326"
	.ascii	"\243\375\261\212\206\347\0109\275\030mr=\332\203U4<"
	.ascii	"D\310\011\353\346\275#N%\355OQ\371\230\247\304\250-"
	.ascii	"12\230\302%\177\202\243\2521^\034\027t\025b_\343\251"
	.ascii	"\213\005\213\336i?\260?\303\236\271{\317^{\306\276\314"
	.ascii	"\314}{\361w\326\247\007vf08h\374\370\223\317\262v\233"
	.ascii	"pb\377\236C\306\203\037ee~n\0266\371}\355\373\003\355"
	.ascii	"\373\303\377\000\177.k\243"
	.text
	.section	.gnu.lto_quickMedianFilter3.572328cf3668d031,"",%progbits
	.ascii	"x\234\235\225\337OTG\024\307\347\314\334\273\367\327"
	.ascii	"\262\233\260\305\030D\244\251\204h\033\010o\304\244"
	.ascii	"\377H\337\032\322D\037PSM\037\372\342u\325\205\202i"
	.ascii	"\213\261\030\014\333\245!\006\261\352\312\252\250\200"
	.ascii	"\333+\313\257\305\325\365\007\017\232\364\301\340\217"
	.ascii	"\026+M \376Hk\203=g\346.\254k\313\203\2330\231{\356"
	.ascii	"9\337\371\236\317\314\035t\306\2310\030\253c\214u\343"
	.ascii	"\037\004\031\360\357o2\266\337\344\240\251\211P\223"
	.ascii	"k\246\306En\033sm}<\302\334\240\316\003mu\370d\320\030"
	.ascii	"\014\200\241\262\015n\312\260%\303&X*lq{\266\001\303"
	.ascii	"\316h5\206mpT\330\001\240\211k\002\333\307\205\246\007"
	.ascii	"\014\323\262\035\330\3075\006\236\006B\016\350\213}"
	.ascii	"'\216\011\270}\360\\\217\370V$\004\003\015\037\027o"
	.ascii	"\034\177\030\242G\200\032||t%\266\240m\351w\361\347"
	.ascii	"\035\033\016w\247n\271VBp\326\215\351'\241\012\372\241"
	.ascii	"\212:\034\200-\230\034\353\313\374U&6\002\303\371\371"
	.ascii	"C]\247\235\272\023\256\033u\275\347G\205\2739!\004\234"
	.ascii	"\002Q\\\210!\006?C\035\345\277\376\375\350}P6\202\370"
	.ascii	"\030\035\271\337\031V6\036\320\353\234\367M\322\026"
	.ascii	"\233\244\364e/\277h\326\366IO\313W+;]w\332\325\022B"
	.ascii	"\203\263J\376\014\312\237\226\276\030\245\317\015.\377"
	.ascii	"P\026\320 \011\265d\033\335\236\203\0000\306)\202\357"
	.ascii	"O\\\317\244C\342C)\235|6\262\030\360\245'\323\325\235"
	.ascii	"\007\2244\207\301\267\235\323\017RP\233\274\003\236"
	.ascii	"\273\374\246\325\365^~\372\323\340\246J\220Q\003;\323"
	.ascii	"M\032,\240\376l\352\324\301!P&\337\207h\032\246\241"
	.ascii	"\234\206\010\015\0254\254\243a=#\300\254\035\255\342"
	.ascii	"\231\350\300\371xD<\206ho_\242\251\250\035\324\221\235"
	.ascii	"\240\221\363\330OJ\366\322uh,o\0206\216N.H\243\035\010"
	.ascii	"9\267M\314Ct\2515\353Pn\\\030q\001l\036\016\034\217"
	.ascii	"\201\012\230\030+>\013:hp\021\3131\247\247\220c\307"
	.ascii	"\205\205\231\030\213\376\335\356\307\234\3425\205D\370"
	.ascii	"jj\246-\230\200\370~dX\203F\260\020\206\310\011\\\202"
	.ascii	"\004\255\032\355\312~F\325\230\373t\270\3557\2731I\270"
	.ascii	"{\323\234\\\343\226\2207\302{\031\032q\001\262\320\025"
	.ascii	"\033\260\324ze\370\022\353.\266\346\006m\325&\300\025"
	.ascii	"\024G<5\005\014\230%\333\326\030~\005\010\2163\025\005"
	.ascii	"\366\010\016\3463\263\\I\221\316h\342\360\200\257\303"
	.ascii	"aX\355\353\013\224Dr\374H\010\205\304\235rT\322i\007"
	.ascii	"\320xz\376i\277A\314\343\"\204\325\267&{^:\312}\215"
	.ascii	"\357\035\266J\015\030\201F\3524\235\375D\245\207\377"
	.ascii	"'\375c\225>\212\351h\356^f\026|y,\221\207\254C\004\330"
	.ascii	"\234%\267?\305Q$\237z\335\301\305G\222\364\322\324\237"
	.ascii	"y\356\037\326i\360\017\352\325w\017j\321\241I\257\036"
	.ascii	"\232_\220V\232\270\204\324\236|M\221\267m\366\016\211"
	.ascii	"\222\276<\332\223\260*\350\021\377Q\221\016\226\264"
	.ascii	"v\215*B\262\023\243\2001\233\025\252\315\362\265\261"
	.ascii	"\214\025(\336\363\363#\230?\361\346\225'o\006\003\010"
	.ascii	"\310\341\330\350]()\317\250\306a\274\200\365\371\006"
	.ascii	"\177=\224\360\261\232\005\254s\341\367C9\261\212r\022"
	.ascii	"QN\020\312rE\346G\235B%d\236|P\322\335\024\221\211H"
	.ascii	"3\326\012\231\005]9\255X\373|M\027\310\374\343\347\257"
	.ascii	"[\233dv\345\200\325\373\372X\342\223\260\331\013G\222"
	.ascii	"X\252z?\0223\253$\256#\211\031\"Q\241H<3(TBb\271\272"
	.ascii	"\304]\216HTH3\316\312\247\366G\341S[\277vk7$\212\261"
	.ascii	"_\345\227\343_\351\335\017\274#z\323\220\333\006\370"
	.ascii	"o\201\301Mhb\013tC(=*k\307\353`<\202\327le}\303\236"
	.ascii	"/\233\033Z>\337\261\263\241yWK\313\256\2358\337\273"
	.ascii	"}O}3\203\257`7\354\320\366~\321\262\373_\200+3\017"
	.text
	.section	.gnu.lto_quickMedianFilter5.572328cf3668d031,"",%progbits
	.ascii	"x\234\245\226\337OTW\020\307\317\334s\367\367/v\227"
	.ascii	"B\002,.\021\262j\211\2047\236\372\207\364\255!M\352"
	.ascii	"\003j\252\351C_\274\202\002\205\376P\333b0\340R\215"
	.ascii	"\241\266\266\310Z\261V\273, \302\"\362K\252\264\305"
	.ascii	"\212\250mI\304\004Ck\254\210\2359\347\336\335\345Z\267"
	.ascii	"\011l\302\344\336\331\231\271\363\375\234\031\366Z\230"
	.ascii	"\302\206\\\214E\030c\253\370\007\271\014\224Cc\214\355"
	.ascii	"\267+\240\312\013./\372\354\252\302?\352cLsZ\352<Ls"
	.ascii	"[\024kc\004\357ld\335V\260\311p\233b\027n\207p\333\301"
	.ascii	"!\335\016\305)\334.\341v\202K\272]\212[\270=\302\355"
	.ascii	"\006\217t{\024\257p\373\204\333\013>\351\366)9\302\355"
	.ascii	"\027\356\034\360K\267_\011LW\240;x\271\030\335\001\010"
	.ascii	"Jw\020\200.4;\260}\012W-V\233\335\341t\271=^_\216?\020"
	.ascii	"\204}\212\312 \241\202E\030\024\317>\341G9L\0368\333"
	.ascii	"\306?\346Q\316@\305\333\245\353\307\356y\351\026 \214"
	.ascii	"\267\367/\326/\252[;5\374$\216\316\372Zc\023\232#\312"
	.ascii	"\025\326\212\341_B\021tB\021a<\015[1\270\376\344\300"
	.ascii	"S\017\017\001\303\353s\007[\316\270\"\2474\255VK,\177"
	.ascii	"\306\265\322(\347\360\025\360\314Dt1\370\032\"\024\277"
	.ascii	"\264\322~\301!\333\310\305\333\347w\016\035\262\311"
	.ascii	"6:\000\357G\023\037t9\371&Q\372J\375q{\331I\321\322"
	.ascii	"\325\336\202\303\2326\254\251Q\256\302\267\262\3727"
	.ascii	"X\375\214h\213Q\364|\367\352\347\036\253\012]PF]c\263"
	.ascii	"g\301\012\214)\344\301\357O]\033\210{y\211\250\334\365"
	.ascii	"\360\322\222U/=\326[|\270N\226V\240{m\343\364\201\030"
	.ascii	"\224uMAB[}\321\240%V\337\370\342\371\246r\020^\027\012"
	.ascii	"\263\270\311x\200\344yI\250\017\215\325/\276\017\320"
	.ascii	"e\220L\036\231|2\005d\012\311\204\310\024\223\011\223"
	.ascii	")!SJ\246\214L\204\314\0262\333\030\235\003kBI8\236\315"
	.ascii	"x]\347\341\017\240\266\343\217hU\206l|\236P\214\015"
	.ascii	"\237C\3351\241\271\345`\377\270\240\253`\307\337\011"
	.ascii	"A\315x\0268\355|\001j\0377$]\024\334\316]\355\034\330"
	.ascii	"\002\324\035\253\007\351p\243/sf,\240\302y\314\307\230"
	.ascii	"6#\306\333\316=\030\211\276\332\177\232t\237/\363\241"
	.ascii	"\\\260~24\322\350\216B\373~\204\035\306N0\021z\250\025"
	.ascii	"\270\000QzjmK\362M\312\306\330\376\017\333n{+\273\350"
	.ascii	"\\:\342\012\265\215gG\275\3219|\017\225\370\000j\241"
	.ascii	"\245\376\264C>\317\217_b\336\371\206\321n\247\324\011"
	.ascii	"p\021\213#\237\260\301\001\243\204n\225\341\326 9\205"
	.ascii	"I/\260\373p`|`Z\221\245\250N\337\\l\311%\353\250\360"
	.ascii	"\203\034\200\277\260$\242S\216\240^?\237\012`%\013\035"
	.ascii	"\0016\036_x\326i#\350\355<\200\331\313-\237N\332d\367"
	.ascii	"a\275w\330&j\300%\250$\245\361d\271\014\017\276\"\374"
	.ascii	"u\031~\031\303\261\271\231\201i\320\313c\212\230\306"
	.ascii	"fne}Vq\3761\005\213\214\307\2365+|\263 \375x\350\321"
	.ascii	"\270\242O\3650\350\023\375\343\313\023\23515\361\364"
	.ascii	"\324\364\"\2558q\011\3103y\237<k\333\354\350\341&]\011"
	.ascii	":\223\240Lh\343\377\221\021w\233\244\365QF@(\261\031"
	.ascii	"\030\223I.e\346\275\002K\271\314\3557(\316\350\361\371"
	.ascii	"\2313j\023\377\327N\234H\316ZL\351\003R8\\1\260.\027"
	.ascii	"\352\317\303\022:V\273\201u\336\267>\224\203i\224W\021"
	.ascii	"\345 \241\314\223d\216[\310e\"\363{\256I\335\020\221"
	.ascii	"\311\227\031\303FF\206\234\216G\257\231\005\015SJ\236"
	.ascii	"\350\337\221\202\271h\221\342\012\262\217d\322\200\271"
	.ascii	"\242\307\027f\207?\222\232\311\355z}L\321\3419\015x"
	.ascii	"\217\213\326\007\357Z\032\336(\302\273F\360\012$\212"
	.ascii	"\2076r\231\340\255\026\233\272\273N$\012D3\256\324v"
	.ascii	"\256\030\333\031\312\276nc\246\355,\376\2379\0327\257"
	.ascii	"g\010st\024\3565\353\271\016\024\023i\024\223\210b\202"
	.ascii	"P\204\214\225\234\314\262\222\272\230)\"Q,z\361\274"
	.ascii	"\264`\341\354 n\230\027\254\004\343\007_<I\370\344\202"
	.ascii	"\221\244?Gg6\233\262\247u.?\231\367+\214\025t.\336\215"
	.ascii	"\356\327\3154\227[\310\345&q\011\247\366\353V\226\375"
	.ascii	"\322\305\315\020\230\222\324~\311\214\264\232\214\365"
	.ascii	"2\364\374L\031a\321\276\357\245\365*\315\316\342\027"
	.ascii	"\363z\225e_\257_\315\353U\212):\273\234\215\256\327"
	.ascii	"l\232\335md7K\354J%\211\021\033\271\326\222\370;dV\363"
	.ascii	"\033\221(\023\315\370S\353\365\334X\257H\366\251\272"
	.ascii	"cZ\257-\331\311\315\231\267+\202):\211\000{j\333\320"
	.ascii	"v\335M\223\230G\022w\211D$\365\3735o&\221\376\3712\272"
	.ascii	"\273G$\"\242\231`\212\304\252Ab[vi\367\005\211\376Y"
	.ascii	"!L\177/m\235K\034\261T\365h\215\200\357\266\014\036"
	.ascii	"@\025[\244\267\027Y\217\322\232\360U\245\316\203\357"
	.ascii	"\200\005\333+\366\274[]Q\363\326\216\235\025\325\273"
	.ascii	"jjv\355\304\353\275\357\354\331^\315\340=\330\015;\324"
	.ascii	"\275o\327\354\376\027G\177\254\324"
	.text
	.section	.gnu.lto_quickMedianFilter7.572328cf3668d031,"",%progbits
	.ascii	"x\234\245\230\371OTW\024\307\357\271o\026\006\006\220"
	.ascii	"}\233\2011\205\210\2058R\254[0\321h\214\177C\177kL\223"
	.ascii	"\372\203K\252\351\017\375\305\021\025\267D\253Q,V\012"
	.ascii	"\215\032\265UQ\254\326\025G\321\012n\250Ek])\012u\001"
	.ascii	"\013\256U\254\366\234{\357{o|Sg\032\207\037N\336\373"
	.ascii	"r\317y\347|\356\375\316c\2603\316>Ncl\010cl50\006>\006"
	.ascii	"\374\353s\214\315\213\343`\223\027\232\2748\032g\343"
	.ascii	"\332\216\343\214\005\342\355\235.\026p\333\271c\361"
	.ascii	"\020\274sRt;\300)\227;y\234\220]B\216\003\227\224]<"
	.ascii	"^\310\011B\216\207\004)'p\267\220\023\205\354\206D)"
	.ascii	"'\362$!'\0139\011\222\245\234\314\007\0119E\310\203"
	.ascii	" E\312)<U\310iBN\2054)\247\361t!g\0109\0352\244\234"
	.ascii	"\3013\205\234%\344L\310\222r\026\317\026r\216\220\263"
	.ascii	"!G\3129<W\310yB\316\205<)\347q\217\220\275B\366\200"
	.ascii	"W\312^\236\337\356G\271\340P>\312\371P \345\002\000"
	.ascii	"\272\010\304\001\233\3135\233\335\341\214s\305'\270"
	.ascii	"\023\223\222\007\245\244\246\245gdfe\347\344\346y\274"
	.ascii	"\371\0050\227\333\030\004m\340\024\001\267\205\255\320"
	.ascii	"\326jpa\301\316\365\332r\255Nc`\303\333\376\263\353"
	.ascii	"n'\321-\200\017o\357\354\257\352\265\015\335\034\300"
	.ascii	"\237\340\332U\2515\215\347\003\256:\215\263\032\\\276"
	.ascii	"\005<\260\031<X\010\266\302P\\\\\265\241\371E\242\346"
	.ascii	"\005\206\327\273\027VoK\030\262)\020\250\014\004\237"
	.ascii	"\254\326\002\205u\232\006?\200\026\232\210\022\203\037"
	.ascii	"a\010\255\337w\270\367#\331\205\007\357\016\334\350"
	.ascii	"\017&\310.:\000\357\317\004\2274\304k\005\242\362\375"
	.ascii	"\247\033\017\363\242\015\242\245\233-\271+\003\201\226"
	.ascii	"\200\255N\263\301\016Y};V\337&\332b\264\274s\327\353"
	.ascii	"5\211\016\0334@\021u\215\315\356\004\007\036HN\012\376"
	.ascii	"~\323\351\346\246$m\260(\335\320s\260\337\241Jw\267"
	.ascii	"\344\257\234/Ks\330\365v\343\364\003\215P\324p\021\202"
	.ascii	"\201\327o\026\005\202\227\247|\337_8\005\204\232\202"
	.ascii	"\203\331S)\244\001\215\227N\203f`pd\211\337g\323e\016"
	.ascii	"\005B\340\360R\360Q\030L\241\220B\021\205b\012C)\224"
	.ascii	"P(\245\340\2470\234B9\205\021\024FR\030Ea\014\205\261"
	.ascii	"\024*(\214\2430\236\302\004\012\023)L\2420\231\321\036"
	.ascii	"\262\245\210\003\015\267\014\257;]Z\027T\326\357\336"
	.ascii	"8:\004\031\366*h\341\260\273\221Y\243\340U\275\360X"
	.ascii	"\233\223\266\206\343\264?\011\030\313p\037\321\277\332"
	.ascii	"=\250|\264\2505\201\026\327j)\265\032\260{0\177]\025"
	.ascii	"H!\025\265\320\363f\007\033\354\301|\\\263^_\223^\253"
	.ascii	"\245\341J\324*_.UZF\350C5\261O\317O\236Z\354\256\203"
	.ascii	"\332y\270Q>\354\004\023a/\265\002?C\035=\265\262\272"
	.ascii	"\365\023\312\246\003\375x\373@\\Y\003\355i}\023\247"
	.ascii	"\266q\337\2517\332\303}P\206\017\240\026\252\253\266"
	.ascii	"\272\344\363\262\360\227\230\267g\321\231]\361rN\200"
	.ascii	"\375X\034\371\370t\016\270J\314mc\350>$\307\231T\201"
	.ascii	"\335\201\005m\315\355\\\226\242:][\232o\253:\0168 \017"
	.ascii	"\317S,\211\350\370\252$,\244]L\305Jv\332\002l\274\351"
	.ascii	"\336\362\255N\202^\253ecv[Kw\237Mv\357S\275\303\207"
	.ascii	"\242\006\034\2042\232\264\251\265T.\317\301\345\255"
	.ascii	"\033\017\274r\323\303\234`\307\333\246\336\273]\311"
	.ascii	"\226\354C\262\0058\214\351\330\354\225\346vP\217\303"
	.ascii	"\022\342d/\323\034\254\337&\316C#\247\036\032\007\226"
	.ascii	"q\355\003A\376\321\311\207m\272\371Z@\271\243)\334\035"
	.ascii	"!\247\350\210y\212\202\210\340\010q\312\226{\364\025"
	.ascii	")oOY\277W\263\314y\224\366(G&\254\327TF\310d\365Mn\353"
	.ascii	"l\307(%[\214\342\324\271\266\266jrNOd\254\315:\326+"
	.ascii	"j\275\367\035\353K\345\372\343:\307'y\252>\246(\216"
	.ascii	"q:\307\316\344\367cw\302d\367\013\262;A\354<\022\305"
	.ascii	"wv\222,\360\272\323-\323\234$\022^\231\321\362_\031"
	.ascii	"\0173,\363\264P\206t\265\313`\327k\227\263\371\336\301"
	.ascii	"\242D\346\266\352\354^\251\365\203\351\0252\260\375"
	.ascii	"@\222<\223\364\360\232#\017n$Z\322O\251};m\234\311a"
	.ascii	"\352yXB\261\214\327Y>\362\274\037\3133&\313\263\310"
	.ascii	"\362\014\261\364I2\247\234$Y\310<\363Z\246;Gd\006\313"
	.ascii	"\214\036=#d\234\372\327\371\326\201\332(\305'\372O0"
	.ascii	"\014\276B7x!\346\237x\363<\230,\351\010\257\265\354"
	.ascii	";\357\266\3209\257\212]\260\030\276(\364\323\324)\336"
	.ascii	"\336=k\372\272]\226\364\213*\375W\253\341\013\261\204"
	.ascii	"\202\353~\313\360\357\001\267\335\204{\011\341\266\023"
	.ascii	"\334B\335\344\227\024[c\264\020\223\353\303]&RE\206"
	.ascii	"\313eJ\3108!.\327\007\372\215R\012E\377\211a./\216\354"
	.ascii	"\362+V\227\017\215|\262\177\267\272\274\030S\024\274"
	.ascii	"\244X]~\325\204w\015\341]%x\305\206g\257E\360\254\352"
	.ascii	"\356:\221(\026\315$\207y\266$\362\347\327\015\253gK"
	.ascii	"\243\2748nZMZ\2029\012\305\240XMz\313D\321\201(n\021"
	.ascii	"\212\022\303\244\035\021L\252\306\371\203P\224\032&"
	.ascii	"\355\010{[\230&\325\007\352\244\224\022\321\177\212"
	.ascii	"a\322ot\223\372\243\270\362\266\305\225\303\243|\306"
	.ascii	"\335\261\332\320\2179\012_j\2546\3542\361u#\276.\302"
	.ascii	"\347\327m\330\375?l\370'\261\030n\330\260;\3543\316"
	.ascii	"\264\241>\320]J\361\213\376\323\302lX\036\205\336=\253"
	.ascii	"\017GD>\255\367\255>,\307\024E/=V\037>0\351\365 \275"
	.ascii	"\007D\257\334\360aO\364wg/\241(\027\315d\204\371pd\344"
	.ascii	"\311\036Z}8*\312A\372\313\352\303\221\230\243Pd\306"
	.ascii	"\352\303>\023E?\242\350#\024#\015\037\366G\367\341#"
	.ascii	"B1J4\223e\230\252F7\325\230(\357\252\307\026S\215\215"
	.ascii	"\362\231\364\304j\2521\230\243Xd\307j\252\247&\213g"
	.ascii	"\310\342)\261\030\243\233\352Y\330\213\3124\225>\315"
	.ascii	"sb1V4\223\023\346\220\212\310/\236\277\255\006\031\027"
	.ascii	"\005\335\013\253C*0G\241\310\215\325!/M\024\003\210"
	.ascii	"\342%\241\2500\376\036\035\210\360\367\250\032\347\025"
	.ascii	"\241\030gxj \214\236\351)}\240\177(\245B\364\237\027"
	.ascii	"f\252\361\221\351\275\266\232jBd\023\276\261zj<\246"
	.ascii	"(x\236X=\025\340\006\274y\334A\267X\337xS\241d\201g"
	.ascii	"\276\251Tw\225\274\2142\250\031\257\341\251u\272\247"
	.ascii	"&F\036m>\177\333R\223\242\234\243\005\334b\251\211\230"
	.ascii	"\243P\344\263\001{L\226Zh\242\250B\024\013\011\305D"
	.ascii	"\335RUa$LK\251a\026\021\211I\242\227\002\203\304\267"
	.ascii	":\211\311\221I,\026$\216]\027s\251\377\002\325t\004"
	.ascii	"W\331G\357\015,\206:\374R\017K\370h\326K\337\367e=J"
	.ascii	"[\212_\356;]\234\261\334a\376\331_L\365O\377t\332\014"
	.ascii	"\377\324\231\323\247\317\234\201\327s>\237=l*\203/a"
	.ascii	"\026L\263\315\371l\372\254\177\001\231\001!\367"
	.text
	.section	.gnu.lto_quickMedianFilter9.572328cf3668d031,"",%progbits
	.ascii	"x\234\245\231kl\024\327\025\307\347\334\331\365\356"
	.ascii	"\372\211\015\306\357\365\333\213\327\310\026F\002\004"
	.ascii	"\022HDD 9r\004\002A\345\010\032R\251\371@\0225Q?\364"
	.ascii	"K\026\363\214\335\362*\217\332\305\254\023py\307@\032"
	.ascii	"\032\014u\034H\300v\010\016\224$4!-5\220\342\026C!&"
	.ascii	"\200!\320s\356\2753c\337Qv\020\353\017G3\177\337s\347"
	.ascii	"\234\337\334\377\275cpkLk\315\324\264\200\246iA\246"
	.ascii	"i0V\003\266\356\214\246-\3652p\211\013]\\|\344u1}\327"
	.ascii	"IM\013\305\272\257y\264P\274\233\305\254\016\340\235"
	.ascii	"\207b|\014x\304p\017\363r\331\307e/\370\204\354c\261"
	.ascii	"\\\216\343r,\304\0119\216\305s9\201\313\361\220 \344"
	.ascii	"\004\226\310\345$.'B\222\220\223\330\010.'sy\004$\013"
	.ascii	"9\231\245py$\227S`\244\220G\262Q\\N\345\362(H\025r*"
	.ascii	"\033\315\3454.\217\2064!\247\261t.gp9\0352\204\234\301"
	.ascii	"2\271\234\305\345L\310\022r\026\313\346r\016\227\263"
	.ascii	"!G\3109\314\317\345\\.\373!W\310\271,\217\313\371\\"
	.ascii	"\316\203|!\347\263\002.\027r\271\000\012\205\\\310\212"
	.ascii	"\270\\\314\345\"(\026r1+\341r\200\313%\020\020r\200"
	.ascii	"\215\341r)\227\307@\251\220KY\360|\005\312e\307\374"
	.ascii	"(\007\241L\310e\000t\021\362\202\366&\323]\356\030\217"
	.ascii	"\327\027\033\027\237\220\2304\"9e\344\250\324\321i\351"
	.ascii	"\031\231Y\3319\376\334\274\374\202\302\242\342\222\300"
	.ascii	"\230\322`\031\274\311\\\032t\270\300\307\003.\026m\255"
	.ascii	"\276E\207\263\313\017l\325\327\350a]\003\027\336\336"
	.ascii	"\372\254\361r\"\335\002\344\341\355\225#+\373]\245;"
	.ascii	"C\370\323\261\345XJ\303\241\317C\276\260\316\264\006"
	.ascii	"\034\276\013\262a'd\343D\260\033Jq\360\312\355'\356"
	.ascii	"'\3509\240\341\365{+6\357\213\013\264\204B\265\241\216"
	.ascii	"\201\215z\250(\254\353\260\007\364\241\211(i\260\027"
	.ascii	"\0024\376\336\261\263\3570QF\021\336\356\351\250\357"
	.ascii	"\324E\031\315\014\357Ow\274\325\032\253\347\362\251"
	.ascii	"\017\374x\256\315W\274\235\327t\262;s}(\324\031r\205"
	.ascii	"u\027\274+\246\337\217\323\357\343ui4\274\367\340\243"
	.ascii	"M\0111.h\205b*\033\253=\0001\240i\214\024\374}\313\247"
	.ascii	"'\332\023\365|>u\353\365\243\267b\344\324g\272\375\353"
	.ascii	"\227\211\251\031\034\034^9\375\300!(n=\007\035\241G"
	.ascii	"\217W\205:\036\315z\273\277\370%\340j\032v\346N\247"
	.ascii	"\220\001\324_&u\232\205!&\207\377\336O\227\271\024\012"
	.ascii	"(\024R(\241\020\240\020\244PF\241\234B\005\205J\012"
	.ascii	"\343)L\2400\221\302d\012S(L\2450\215\302t\012\317P\230"
	.ascii	"A\341Y\0123)\314\242PE\3419\012\325\024\236\2470\233"
	.ascii	"\302\034\012s)\314\2430\237\302\002\0125\024^\240\260"
	.ascii	"\220\302\"\012/j\264\000\264:D\211{H=^_\363\350W\241"
	.ascii	"\266yg\313\244!\270\261ON\032A\275\207\274\017q\326"
	.ascii	"\233W\034\357\361\320keH\352\317\034d=.\002\334\222"
	.ascii	"\364>\250\275\275\252+\216\0067\351iM:h}\260\254q%\010"
	.ascii	"!\035\265\241\213\325\015.x\037\363q\314VcLf\223\236"
	.ascii	"\201#Q\253\035\254\223Z\326\320\207\352\374\035\337"
	.ascii	"=\325\275:>\014MK\361%\347a%\230\010\207\251\024\370"
	.ascii	"\013\204\351\251\265\233\273~F\3318\366\322\301\325"
	.ascii	"\033|\343Zi=4\2673*\033\327\014\325F\357\377\003\030"
	.ascii	"\207\017\240\0226\257\334\355\023\317\313\301_b\336"
	.ascii	"\373\253N\037\214\025}\002\034\301\311\221O\236\301"
	.ascii	"\001G\361\276]\032\332\030\3111M\250\240]\201\345='"
	.ascii	"\31631\025\315S7\370\325\032\257\230\307\013mb\341\335"
	.ascii	"\301)\021\035\333\220\210\023\351\347Rp&7\275\002,\274"
	.ascii	"\275o\357n\017Ao\322\375\230\335\330?x5NT\237'k\207"
	.ascii	"2>\007\034\205q\324i{\327X1<\027\207\177\362\370nG\022"
	.ascii	"=\314\003d\271\320\300\341V\257\222}L\224\000\177\305"
	.ascii	"t,\366\302\211\363 \037\207SpW\324\3531\332\200\316"
	.ascii	"\327\303!\232\245\347\320\203z\246\027r\362\267O\335"
	.ascii	"\350a\322]\235 \235\325nw\326\220U\364\241\265\212:"
	.ascii	"\220\336\207\304\311/\336\321oH\031\336e\363a]\351\363"
	.ascii	"#zG\271\"a\253.3\206t\326\334\036\257\366v\234R\374"
	.ascii	"\274\025\217\301\265\253K\027}\026\014]\204\036\276"
	.ascii	"c\336\037\330\325\340S8\235\220s}l`\276 \363\0131\241"
	.ascii	"kG\333\303x\221\357\306\333\207\327\032N\307*\371\237"
	.ascii	"\310\374\223\006\347\201,\371|\234Br\366\032\234{\223"
	.ascii	"\236\216\355)\213m'\262=El\013\004\252mn\222\2067\327"
	.ascii	"\374\335(\265\275.BU(R:\215\224!\3754\337HU;\352\246"
	.ascii	"\224\002\336\200\317\244\333\357\026\335\225`\372@\335"
	.ascii	"\212\273\222\256\007o\277\375\276~{\202B\347S9\327i"
	.ascii	"\203\356C\231\037\240\345pt\240\333-\362\275x\273\356"
	.ascii	"\336\256$%\3753\231~\306\\\304\345\362\3618\203\204"
	.ascii	"\033k\300\275\235\375tp{,\270\237#\334\036\202[\"Hu"
	.ascii	"{H\032\336[\363\0179jwg\211T@\244\\7R\254v\232\037\371"
	.ascii	"\325\206\316QF\011\257?\316\334\021\366\031;B\360'v"
	.ascii	"\204\240H\376\233\262#\224E\336@\316\253;@\020S$\274"
	.ascii	"\370a;\300S\300\373\302\202\367%\302\373\202\340\005"
	.ascii	"\015\327\177\031\301\365\262\227\257\010D\231\351z{"
	.ascii	"\206\345z\331\316\005\312\010\362\352\023l\246/\377"
	.ascii	"\011\024cE\356\337U\223W8\354\012_\253\256.\307\034"
	.ascii	"\311.1ZW\177c\261\273\210\354\276!v\345\246\253/\332"
	.ascii	"PX\256\226\355|K(*LS_\264\355\003\226\251\215\206\376"
	.ascii	"A)\345\274\376$\233\251+\3513\362\301\376\266DaJ\232"
	.ascii	"\255\363\353p\243K\201\363O9\327%\325\324\343\035v\201"
	.ascii	"\177\2516\256\304\034IsD\2646\356\265h^F\232\275D\263"
	.ascii	"\322\264\361e\265\233!66\372\271Bl\306\2336\276ls\276"
	.ascii	"\345c\243\243\253\224R\311\033H6}\274\337\360\361\204"
	.ascii	"\310\306\374N\361\361D\207\243\374\337\252\221'`\216"
	.ascii	"\304\227\022\255\221\257Y\370\372\020\3375\3027\301"
	.ascii	"0r\237\363\361\375\037\"1\3214r\337\023\034\337\377"
	.ascii	"\245\224\011\274\374\2216'Ovp\346u\325\312S\034\016"
	.ascii	"\350~\325\312\2231G\322\033\025\255\225oX\364n\"\275"
	.ascii	"\033Do\262i\345\233Op@\377\217`L1\275|\363\011\016\350"
	.ascii	"[\2242\2317\220j\363\362T\007/\336V\315;-\362\021\374"
	.ascii	"\275\352\335\251\230\"\361\215\216\326\273\003\026\276"
	.ascii	";\210o\200\360M5\275{\347\011\216\340\037\210\3054\323"
	.ascii	"\273w\234\217\340\273\2241\225\327\237fZ\367]\303\272"
	.ascii	"\323#\037\301\367\024\353>\023\371\334\271\257:w:\246"
	.ascii	"Hx\351\321:w\320\202\367\000\341\015\022\274\351\246"
	.ascii	"\021\037D8Qeu\017\211\304t^L\206\315\2073\034l\365\243"
	.ascii	"\352\303g#\257\243G\252\015g`\212D\221\031\255\015\037"
	.ascii	"[(B,\206nq~\323\206()\236\262lh\264\263\224\215\023"
	.ascii	"\365\324\343\337\213\252\247f:\354I\265L\361\324,\007"
	.ascii	"\023.c\212\251fb\216\204\221\035\255\251\2263\023\306"
	.ascii	"\012\204\201\2678\277i\252\025L\335\223,S\031\375\254"
	.ascii	"$\030\263LS\211\224\310\007\342*J\231\311\033\3101]"
	.ascii	"\325j\270\252*\262MV\263\341\256z\316\341\003\344-\246"
	.ascii	"\330\252\012s$>\177\264\266\252\263\360\325#\276:\302"
	.ascii	"We\332\252\236\251\337\023\226\255\214\362~K,\252x5"
	.ascii	"\2716_UG\3766\370\035Sl\365\274\303\332[\303\024_Uc"
	.ascii	"\216d\221\027\255\257\326Z,\326!\213\265\304\242\332"
	.ascii	"<\253\326\331\226\222\375\273s=\261\250\346\325\344"
	.ascii	"\333|5\333\341\303g\203\352\2539\016\233\322\357U_\315"
	.ascii	"\306\034\011\243 Z_m\264`lB\030\033\011\306l\323W\233"
	.ascii	"\230\372\341c\371\312\350g3\301\230\303\253)4M\362\201"
	.ascii	"a\222\271\016oz\213\342\222y\016\233\314\037T\227\314"
	.ascii	"\305\034\011\243(Z\2274X0\032\021F\003\301\230k|66\332"
	.ascii	"\026\206\365\331ht\363Gb1\217\027Sl3\311|\007\024[U"
	.ascii	"\227,pXIM\252K\346c\216dQ\022\255K\266Y,\302\310b\033"
	.ascii	"\261\230o\236>a\033\014\373G`3\301X`\032+l[K\226\261"
	.ascii	"\214\216\336\246\224\371\274\201\200\315X5\016\033\350"
	.ascii	";\252\261^p\000\276]5V\015\346H~c\2425\326\016\213_"
	.ascii	"\013\362\333A\374j\314\323\247\305\306\317:}\214\362"
	.ascii	"\376D0jx5\245\246\261\216\030\306Z\350\320\334N\305"
	.ascii	"X\213\034\026\323.\325X\0131G\302\010j\275\256\250\214"
	.ascii	"\265\333\202\261\007a\354&\030\013\015c\355y\002c\355"
	.ascii	"%\026\213x1e&\2136\203\305\213\016,\366q\026\307/\362"
	.ascii	"\316\344\177\2774\\\352\330\340\236t8\264\032\302\272"
	.ascii	"K\203\375l\222\326O\377X.&\244\264:\035\360QL\3232\313"
	.ascii	"+^\377\325\342\212%?\177\371\225\212\305\257.Y\362\352"
	.ascii	"+x\375\306/_/_\254\301\257\3415x\331\365\306/\226\274"
	.ascii	"\366\177\365\213~\031"
	.text
	.section	.gnu.lto_arraySubInt32.572328cf3668d031,"",%progbits
	.ascii	"x\234mSKOSA\024>\347\236\373jiK`\245\246\032bDR5\240"
	.ascii	".\364G\270\3607\220j\"\013 \341a\342\212K\205\242\340"
	.ascii	"3\004J\011\345bLED\345\241\250\230\250\025bPQ\010\254"
	.ascii	"$\256D\224`d\241\021\215$\024\317\314\\\242\022&\351"
	.ascii	"\314\234\357\236\357\2339\337\231\032\240\301\014\001"
	.ascii	"\034\005\200\343\374C\023P\2732\005Pok\250\253\015\251"
	.ascii	"\315s[\327\350\302\004\200\3437\032,p\002\006\242\300"
	.ascii	"\035\033\241N#\335\300:M\007\314\350\270\316\2035y\\"
	.ascii	"\246\004\341X\323\347Q-\322\353\360\310$V\363\343N\343"
	.ascii	"6\227?'U\012`/F8k\246a\260\213.\221K\210:\207\337\336"
	.ascii	"v~\014\211P\303\002\016W\273_\2347i'\002\357\335\037"
	.ascii	"m\357\254\242\264\343\304\234\314\327Vr\366\270Dx\013"
	.ascii	"\211\005\261\017\303x\023\303\300\020`?\026q\372|\274"
	.ascii	"\247\337G\273%u\271\243o:\340Q\027\332<\352\355-\250"
	.ascii	"w$ude\261\325\242\210\244.\256%\177\347l\234\232\360"
	.ascii	"\250w\267\240\016Hj,\033\237\321\350\240\244v?\371\360"
	.ascii	"\314/\250l\300\233\355I'\243\273\244\343\340f.\2337"
	.ascii	"\204E\2020?\224m\013\232\272\262\010\207\321D^\030O"
	.ascii	"O\216?\015\321\021)\372ej\350\275]x]\212f'\303W\317"
	.ascii	":/\035\251{\357\177]i\361},\034\230\305\214\223]or2"
	.ascii	"?\217]\353\333\233\217\022\325Q\234i\360\351\206)&\013"
	.ascii	"\205k\266\250\304\207\302\005\277\330\346\360d\006P"
	.ascii	"\224\026\024qH\304\271b\312\223*\000\315|S~\024-\244"
	.ascii	"\361B\2370\326\263\236\336\365\267\022\231$\012\341"
	.ascii	"\273\214p9\034\342>q\267\026v\214\337\024-a\354{\323"
	.ascii	"\305d\255\370\232\"#E\010Kx\2663\216\012\020\330\277"
	.ascii	"o\304@\035\037pq\234\323\265\221c\247\310\342L\205%"
	.ascii	"-\005\372S\344S`l\265\331K\314a\245\366\306\261iK(\221"
	.ascii	"4\363\327\304\353s\001\027S\365\354f\201+t\374\370P"
	.ascii	"\230\207\217\320E%9\347S\364`\212\002\233%C[j\004=\215"
	.ascii	"QO\243#>\347]+\227o\301,\241\321\376*\"\260M\002=\247"
	.ascii	"AJ\330\236\304c\226`\232Pi\217\257%\322\232\322\311"
	.ascii	"c\243p\177\030\330\360\202\015c\031\225\306\352\300"
	.ascii	"\377Nn\205\006\012EX\300\206\251\361\003\212\311j\272"
	.ascii	"x\032+\210\334\011m\226\317\312\243\341|\346\031\242"
	.ascii	"\203\313\334\301\376\033\250Z\006\242\277\310\260\006"
	.ascii	"\260\243\270\244\272*ZR^ZVQ\022\255,/\257\254\340}\315"
	.ascii	"\251\352\342(\350'NV\327\230\245UU\245g\016\251\345"
	.ascii	"\260\021\255\254\255\250\301\262?\327\2529\262"
	.text
	.section	.gnu.lto_.symbol_nodes.572328cf3668d031,"",%progbits
	.ascii	"x\234]\321=r\3020\020\005\340'\011\233\037\333X\346"
	.ascii	"O%W\201\223=\017\303\2206g`R\204#\220.\0145g\010\256"
	.ascii	"s\006\006\011h\036\325\333\375vg\013)\203Ee\001\330"
	.ascii	"\005\201\317\013@\230\343\366\267]E\0124\357\004\332"
	.ascii	"\027\341\247]G0t\012\226=\005\307L\241\307\\!c_!\347"
	.ascii	"@\241\317\241\302\200#\205!\013\205\021K\205\202\225"
	.ascii	"B\311\261B\305ZaL\257P\263Q\360\234(4\234*L8S\230r\256"
	.ascii	"0\343B\300\314\031\036\000\264\351\321]\374\237\356"
	.ascii	"p1.\026\247\277\233qY\300\366\03237\350\276\243\227"
	.ascii	"\005\366\311\313\200s\312:\340k\367\277t\336=\367\275"
	.ascii	"\305&\355\307\276\273>\373\375k\276\371H\031\357\246"
	.ascii	"l\374c\216;\373\221\203\333"
	.text
	.section	.gnu.lto_.refs.572328cf3668d031,"",%progbits
	.ascii	"x\234ce`b`d\000\002\000\000I\000\011"
	.text
	.section	.gnu.lto_.decls.572328cf3668d031,"",%progbits
	.ascii	"x\234\215Y\013PTW\232\276\347\236~@C7\256\272Yg\223"
	.ascii	"\2525)k\212\331\331\221\304l2\233\332\255\331l\221\332"
	.ascii	"\231\251]g\254d\342\314\244f\303\264\320Fj\260q\272"
	.ascii	"\033\215S\265;\255<\004\304\0044\210<\004\301\250\010"
	.ascii	"\310S\036\361\011\276\020\021\0245 \362\022\021\024"
	.ascii	"\302[\004\025\201\375\3179\367\325\327\333)oy\270}\376"
	.ascii	"\376\316\367\177\377\177\376{\316\271\255\236\343\271"
	.ascii	"\254W9n7\317q1\006\216[\200k\031\307q\307\240\201\211"
	.ascii	"\013\206V\312\261\213\330\317B\273\000\3552\264&h\267"
	.ascii	"\240\335\206\326\005\255\017\332 \031\2078\316\010\315"
	.ascii	"\017\232\031\332\017\240\275\016m\025\2645\320>\206"
	.ascii	"\366\011\264?@\373\024\332\037\241}\006\355O\210{\341"
	.ascii	"\372+\330tp_\014m\251J\017\022\364\250\257\004\370\002"
	.ascii	"+\306(\361\0274\360)D\257\206\217\337B\213\200\357\316"
	.ascii	"\0108^\210[\313g&\340\364*\216\215`\263#yl\2230^}\035"
	.ascii	"U\351\015V\350\275\245\201/\363\342\253^\241\223\314"
	.ascii	"\211V>O\202\315\300y\346\206\364#\301~^1\236\314\247"
	.ascii	"V\256\352UZ\327(\264\366i\340o~Ol\203\032x=\317\364"
	.ascii	"\254U\214Y\2006/\370\"\343\036\013w^#\276\000\236\315"
	.ascii	"\245z|\2600\236\360\350\005\216Yh3\320\246\241=\021"
	.ascii	"8\215\032\234\177\307{\346,X\340\024\371x\201O\344\360"
	.ascii	"\323\340x\025@>\032\034\233\000kB\236\363G\362e\026"
	.ascii	"\236\037\2559|\233\177\361\231\370[\001Gn?\320\030\023"
	.ascii	"\254\032C\264\0338y\314\353\032cl\202fe.W\"\346\357"
	.ascii	"\037\025\232\211\336\037\301\347\037C\373\011b\371X"
	.ascii	"\345E{.|\351\257\342\\\015\270w\005\336\377\202\373"
	.ascii	"\007H~v\336AL+\321\376s\370\3743h\377\016\355?\204\272"
	.ascii	"\"\353\211\267\347\252\020|\2315\364\023\177N\304b "
	.ascii	">]p\217\202\366k\205?\255\230>\026\326/\365U\251\232"
	.ascii	"[\272v\000n3\341\024\362\254|N>\321\340\370\306\013"
	.ascii	"\307\347^8\376\240\301q\332\013\307\377z\341\370T\203"
	.ascii	"\243\316\013\307_\275p\374Q\203\343\232F\335\374V\310"
	.ascii	"\253\310\241\\\223?\323\340H\303(v\327\2614\323\027"
	.ascii	"\030\031L\210\354JF0\335\037\177V\245c&7\\\237\203\351"
	.ascii	"\372\203\271~\264\262\310\315.\037^\036\277?\275\263"
	.ascii	"\314\202\341!\202\317-1\245Y\030\006.6!\035t'\2322\372"
	.ascii	",\320]jB\313\3230?\334\233\220\350\203\002M\207\011"
	.ascii	"E\355\330\344?\024\270\335\213P12\241\002\204\321Q\264"
	.ascii	"\222\0105\230\340o<A$G\273}\177\301\241\"\364\032*D"
	.ascii	"\257q\350\030\012$\212\010\016\345\203\361\010\030\301"
	.ascii	"\311\344\323\361\343:\034L\374\363\211\275\223s\001"
	.ascii	"\310\024\2509\276Lc<\223\322\223\276\2522\326\355\346"
	.ascii	"Q)h)\221\265\2004r\003+\370\331\225^\266\251\033u\""
	.ascii	"X\016\021\013\037!\366\027\321F\273\013\342\205\020"
	.ascii	"\265s\004\213X\376\005\223t\343$\010\353\362\002%\375"
	.ascii	"'\334\221\202\221\023M\002\007\035.RK\263\214\004:^"
	.ascii	"v\200\220r\200\202\220\311VHbz\344\340\2208\311\303"
	.ascii	"I\217rt=\250\013!?\356\300\373\210\025\316\354i\267"
	.ascii	"\031\333\351\304\037\333>{\321\007\377\205~\236\354"
	.ascii	"\356\314\367\327A\330\225\010\263\321M%\203;\015\330"
	.ascii	"\215\350\327\307\277\333\223\251'_W\303\327\250\012"
	.ascii	"\351\210\261t[\355\0213\216e\210s\035\375\017\214\004"
	.ascii	"\361\015A\3240Dq\321l\251\011\214\034\012\366C\353\250"
	.ascii	"\351\342\302Lm\000\2536\036\2727\306\257\356\367c\325"
	.ascii	"\266\210H\256\270z\010/\333K\3535\332\275\210'\343N"
	.ascii	"\303\264\237\202i\347\320\031\004\307,t\022\351\230"
	.ascii	"\302\322\252\253\375\3727\016\270\257\337\205\302<\372"
	.ascii	"\303\356S\367\335\333L\006\202B\307\305z@'\220\216\364"
	.ascii	"\340S\005\352A\250\034uC\272\316\2427`|}^\361\031#>"
	.ascii	"\312\364\337,\036\036\267P\251\244\236\230\326\211\275"
	.ascii	"\303\365\006\311V'D]\222\335\314+%\222\357d\215\347"
	.ascii	"\251\306s\242\306\234\333\3637\314\202\306\231\222\177"
	.ascii	"\311*g\032\001\205j\345\232\255U\013\274@\005\266\017"
	.ascii	"Le\233q;\023\250\221\313\357\317V=UrIT\362\260:w\302"
	.ascii	"\027\224\214\313\331r'\272Ku1\343\210@\321E\217\224"
	.ascii	"]T+\272L\025\015\304\326\267\373\342n\344\245f<\313"
	.ascii	"\344\012K\230ge42\343\255\346\246\035\376\202\232s\237"
	.ascii	"\246\273k\267\273\223\334\374\353TI\203\244\344*(iP"
	.ascii	"+i\242J\362\357\364\354D\270\217))\315\034\270b\024"
	.ascii	"\375R%y\207\262o\370JN\257y-\307\336#\375Q\242\245\205"
	.ascii	"\241\022\023\006\262-^\263z\223f\365\206\230\325\316"
	.ascii	"\322\033\011$\216R\210c(D\214c\021\201\241f)\216\353"
	.ascii	"\020G\263:\216[4\216{\265;fLx\350\345\342he\012\353"
	.ascii	"j\232{\0208=\000N\357HNy\232\274o%\247m\340\364[\265"
	.ascii	"\323\333\324i\343w%\217|\360\370\313V\376\235\227\252"
	.ascii	"\374N\232\231\01613\027+\353Gy!3B\345C\275\271u:\002"
	.ascii	"D\355r\361\267\2535vQ\215G\263\262\366\370\340yu\361"
	.ascii	"\2571\251g\016,=L\340\275\235\371\203\276\242\355.\263"
	.ascii	"\265T\025\035\324)E\257Qj\276G5\367\212\232k\246N5Y"
	.ascii	"\004\315\255\331&\232Y\262\305\000\014\224I\212\273"
	.ascii	"\325\212\373\330T\246\315\025b\034\317{{\\\225\265\326"
	.ascii	"\257V\014\266\001/\212=\352\357!U\374@T<r\342\344\264"
	.ascii	"YP<\220c\221\024\003\014\335\227\025\337W+\036\244\212"
	.ascii	"\333\306Sb\014x\017S,.\305\213\331R\234qr\352\212\236"
	.ascii	"u}\240[5\336\220\344\217\263\030\324\3356Vj\306\007"
	.ascii	"Yg8;n\324\007\027\260Nw\302\345m\376\270\214uj\357\224"
	.ascii	"\257\3055\354\363\304\363\375\325\276\214n)t\347z\222"
	.ascii	"\223\215l\335?\200\310\351\245\253\363\216\037\256\245"
	.ascii	"XcQvY\246\016\255\200+p\311\212<\272\333?\270\275<\365"
	.ascii	"`\234;\331J\346o\012\002{\206\226\310\247\204\357hj"
	.ascii	"\336\202?\034\203\317\0377V\270kc0\311\335\250\032="
	.ascii	"\254Fw\226\031\334_/#\330q56H\015=.BG\264i\213\310_"
	.ascii	"\341\2102\032\243\207c\027Aq\302D\220+\205\236s\334"
	.ascii	"\356\367u\034z\004\203'\311\340\011\201\015`\350)\234"
	.ascii	"yf\320\0124\013m\032\332\023h\217\321\012:X\014O/\205"
	.ascii	"7\246)\231\311\200\304&\367\016\225\030p\017M,_v\363"
	.ascii	"\306\177\243\300%L]\363;D\334<\014}.\027\012\321\352"
	.ascii	"E\342\034\310z\031\211\340\364A|g\201\237?<\355\333"
	.ascii	"\331\201\216z\021\005rh\001\371\013\300=\251\261\337"
	.ascii	"bZ\377`\023\036\223\254\376\306-\312\362_\373\212\242"
	.ascii	"\374\267\361\244\374\335\274P\376\317\236\026=4\013"
	.ascii	"+!,2\371Eq\356\3530\356}\012DCr\\C\352\007`;O\036\200"
	.ascii	"\256\307\311\035&\374\300\353#\333\320:^\343/\351\213"
	.ascii	"\341\251q\274>i\304\342Ua\034U\030+*\034X\350m\360\025"
	.ascii	"\327\352\037I\317'\240P4/\311\203\217\236\362vPyC)\371"
	.ascii	"\323\030\2171y/\223+\217\245\"\221*I\020\22546\304\236"
	.ascii	"#[\325]P\322\\(.\025\213\011\014\305\313R\342\325Rv"
	.ascii	"R)7;\222\013,x\226I\271t!z\332\"\0045\371c)(\302\224"
	.ascii	"$3%\251\231vQ\246\314\303\343\207t8\031S\246\276\274"
	.ascii	"\346\203<\254\003\313\310\213\014Y\0102j\257\377\017"
	.ascii	"\353\273\335"
	.ascii	"\377\007\375\212\216\251\243<\316\245h\376YF\307y\223"
	.ascii	"\370\252\000\021\353\0039)^\264\207\017$\303\350\253"
	.ascii	"B2\377\032\372\222\027_\025\306\312_)$o-\273y\023J\221"
	.ascii	"\365-3\261\304T\356k\332c\301\205\314\305\331#\011\015"
	.ascii	"Fo.\366zu\321\221\376F\214\033\016\313\251\340\342+"
	.ascii	"\331\005xd>\022Z\253\036\263M\226 \330\344\2254LN\371"
	.ascii	"{\235\275}t\366\322\304\331\273\3312\025m\226\266\323"
	.ascii	"\177**\226*\035\200\350\013\331\345\027\352\254\247"
	.ascii	"\323\254W\215\177\371o\270\002\277\314n\232\311\277"
	.ascii	"\270\233f1\333\265\241\342\035\376\242m?\263-\214\034"
	.ascii	"\256\363\021m\331\314\266w\301}6\300\353\256{\200\206"
	.ascii	"\226#\206\226\333Z\324&\206v\351\230\274\353\002\014"
	.ascii	"e\310\201e\250\003\313\245\201E\237\235\376\033|\206"
	.ascii	"\005\366e\321\370y\177\334\300:\273\023\316da\334\310"
	.ascii	":\307\272\213/\031q\023\353Dw\014\354\326\343k\2543"
	.ascii	"\373\360\253v\3046&\177\350n?\331\236\022\3006\246\273"
	.ascii	"\360\265\276a\360jg\000Z\261dE\240\264\023\375se_\022"
	.ascii	"\331\211`\272\016\201\274\002^s\277P\256\241\371P+G"
	.ascii	"\240V\320a\001O\326\320\"(\246\243\374\012T\010\355"
	.ascii	"\030\257\\\336'+\305M\346kM~\345\0363\020K\367\030\000"
	.ascii	")\367\030a\233\250\304\3226qP\315\244\330\005!\354\326"
	.ascii	"\307\017\373u\312\025[\211\205\227j^\\\261\333\036\344"
	.ascii	"\227\033\351l\203M(\236\202\212\242F^\262\225\260\022"
	.ascii	"\030\230/\314\365\367\272J\226\321\022(\025K\240\271"
	.ascii	"z[\207\217\264\216//\226\327q\000\242<\271\010\362\324"
	.ascii	"EPN\213\240b\333\3632\036\267\263\031\255\236\330\037"
	.ascii	"\207M\362\317\011dj\345P\216\223G\022\362H\205\000\272"
	.ascii	"c.u\233\317\342da\266\226\353H\262\304\371\202W\033"
	.ascii	"~\2618\206\200\007\3633\357y\244\011\276WpWIi\352|2"
	.ascii	"\332\257\247)\251\222\322\024[7\\\300\343\021&2\357"
	.ascii	"\340\265Y\214'X\347bb\334\224\036?a\235\362\231\266"
	.ascii	"i=\236g\235\251\257\242\241T\243u\264\223\235\237\326"
	.ascii	"o\301\273hG\377xz\327-\013\034\222\2402\305\302\014"
	.ascii	"\254\226\012\363$\244\254V\2730\031\372N\265Xc'4\241"
	.ascii	"\254\3064\213\370\2240\200\024\3619(\3423P\300g\241"
	.ascii	"\325y\024\361=\311\301i\265\003E\351\011G\221\035\264"
	.ascii	"\210k=\213\230\344b\270\240\311\210Sh\304|Q\372\276"
	.ascii	"\012\013Z\022\250)\352\"\010\371>Q\302\211\354\247\304"
	.ascii	"\317\005\300\235\227k\212\270%\336t_\314\017W\301\361"
	.ascii	"\024\036\365\335\032.\340]\232_J\371/\003\177\003p\327"
	.ascii	"{\004\334\274\357\025\030v\371MJ\377\015\320\023\270"
	.ascii	"\244/H\025\362|\032&R\000\363\342s{i\337+)\224\211T"
	.ascii	"W\215w&Rg\375qe\3768\207%\250\274\367B\275\037Z\032"
	.ascii	"\250\245\036]\005\321\336\002`\222Z\367\031\210\244"
	.ascii	"F\000]\221\263C\024RW\365\267\356\237\260(k\237\000"
	.ascii	"\345\332o\222j?/\271\350:[\"\300\206\252\331r\320\023"
	.ascii	"\237V\303{]\016\256\321\345\240Y\\\016\322S/\215\352"
	.ascii	"\204\243\312L\311\233%\362r\000@T!\213\253P/\007\327"
	.ascii	"\351r\260#\263}&\000\027\262\247&kf\256T\226\303\036"
	.ascii	"\305\311\216\324\032\203\264b\335`\022G\352\266\347"
	.ascii	"\350\275J\274E%\336\024%\246\306}\231!\236\353\256\374"
	.ascii	"\253\264g\001\012\265\310\372Z\324\372\276\245\372\236"
	.ascii	"\234/\036\362\301\025L_\337\336\311C\036\207e\362Z-"
	.ascii	"\347\265M\312kCN\\\"[f\333\244@\222\352\272\353u\336"
	.ascii	"\337\311\333\251\350\333\242\350G=\3313zA\364\350\351"
	.ascii	"\305)\321\356|\030w\200'8\324*\313nU\313\276Ce7\316"
	.ascii	"$WZ\360%&;\365p\222\270bO\376L:L\022\242\016\231\250"
	.ascii	"CM\324I\211\352\352\257?\362\305\355\214\350\310\216"
	.ascii	"\322\014\235\230\311_x0u\311L]j\246n\312\324Zw6\327"
	.ascii	"\202\207\031S\342\321\241)^\324\364K\017\246\036\231"
	.ascii	"\251G\315t\2272u>mI\305xA\347\355\204\2640\330\\\023"
	.ascii	" e\377\036+\231\234\257\007[\260d\354c\306\316\334\347"
	.ascii	"W|%\343}f\314/\372\272\301\373v8@\347\251_\234\247\321"
	.ascii	"\354{\327\304@F\033\375\245\352\002\030\352\225#\351"
	.ascii	"UG\362\200U\327\314\221\006\023\336\245\177\251\237"
	.ascii	"\224\006\231\274C\247\006\272\350\023w\200\374:\370"
	.ascii	"\356\303S\367\335\361\211\3567\335\323\354\307\301\207"
	.ascii	"\242S4\304\353H\217\375\334\374\035\365w\274\344\352"
	.ascii	"~\223\262\200\311/\260r\001\017\263\002&w-p\275\007"
	.ascii	"xD\000\217Pp\365\271\2146\263\230\264\370\357\373\201"
	.ascii	"\023\215\362\313\310\263\32472\346\253d?\357\301>&\260"
	.ascii	"\217Q\366\334\203\247\342\315J0y\177\221\301\343\002"
	.ascii	"x\234\202\237\234j\311\343\3311q\0059\362\324\356\274"
	.ascii	"\214\205\337/\310\357\330;n\325\246\352\225\247\010"
	.ascii	"\262tO\302\332;Aw\216G\212c\004\351\300\210\261\205"
	.ascii	"\234\230\000\245\367k\036\336\247\004\357S\324{MWE\207"
	.ascii	"\007\370\221\307\271\343\261\000~L\301\211\217r\022"
	.ascii	"\314J-dM\220w\261i\245\226i\252\345\371\316\323\351"
	.ascii	"\006\257'\246\031\361\304T\310NLi\025;\333\221\232_"
	.ascii	"\374\231\200CO(\377\014\343\177B\371\357\317\036;aa"
	.ascii	"\3113@w\246\344@\263\331\253\273g\242\273\247<uWszd"
	.ascii	"\025\033\373\032\364NtM\324\012\377ap\227\274/\316f"
	.ascii	"\306\226\277 \3469\004;K\203\235\243b\23611sTL\307\301"
	.ascii	"\326,\344\325\373\274\350}\230\005{\250\274>\316\242"
	.ascii	"\346\227'v\201\362\3173~\322\361\371\371\257>^\036\374"
	.ascii	"\336{\234oHH\270\335\365\366\252\020\327O\202\242\234"
	.ascii	"\216\240p{hDT\230-\310n\333\022\021\276.h\2435tC\270"
	.ascii	"\335\026\024\022f[o\215\212p\205\270\266n\2629Wn\340"
	.ascii	"\214\302\2507\264F9\267:\203B\234\2560\300\000\324\317"
	.ascii	"\031n_\277r\223\325\341Z\371\246>4\322\356t\351\"l\326"
	.ascii	"\365F{\244k\203#r\313\253\332~]\033`\350R\353\246M\021"
	.ascii	"[?\260Y\303\326Y\355a\214\343\255\277_\031\344t\204"
	.ascii	"\002$\334\036\024\032\271qc\244\235\302\235+C9\035q"
	.ascii	"\245\013\215t\2567X]V\373\252\365z+\351\230=h|\251\006"
	.ascii	"\007\0147I\237\326\373\204\3316\007\203,\207ac\010h"
	.ascii	"\370\010n\221\021a\037\261\336j\326[m\204\230l\233C"
	.ascii	"\234\030\254^U@n\030\314e\204\277k\242\234\033\374\340"
	.ascii	"\276\326\352\010\267\332CmK\341\363G -\314\352\010\373"
	.ascii	"\300\2669\334\352\012\217\264/\012\263}\346\260\331"
	.ascii	"\234\277\211\374\320\032\0060'\233\225\267\336\005\016"
	.ascii	"\341nr\206Z#l\037Z\355\237\331L\366H\307FkD\370_lk\321"
	.ascii	"'\350\367\350w\276\3537\205l\266\205\272\"\035K\326"
	.ascii	"E\205G\204}\030\351\242\264\253\255.G\370\347\330a\335"
	.ascii	"b\200q\0216\247~S\270+t\203\316\021\031\021A\3060#\336"
	.ascii	"j\335b\226zd\242\375\344\236\313\350 d\266\265\213\377"
	.ascii	"\034\025\036\372\247\3256\"\357?\303#\\6\307\333/\232"
	.ascii	"\336y\321\364\323\027M\357\231\255\016\207u\353GQ\353"
	.ascii	"~IjH\357\374\263\303\265\376\377\001U\253\021a"
	.text
	.section	.gnu.lto_.symtab.572328cf3668d031,"",%progbits
	.ascii	"applyDeadband\000"
	.ascii	"\000"
	.ascii	"\000"
	.ascii	"\000"
	.ascii	"\000\000\000\000\000\000\000\000"
	.ascii	"\335\000\000\000"
	.ascii	"constrain\000"
	.ascii	"\000"
	.ascii	"\000"
	.ascii	"\000"
	.ascii	"\000\000\000\000\000\000\000\000"
	.ascii	"\343\000\000\000"
	.ascii	"constrainf\000"
	.ascii	"\000"
	.ascii	"\000"
	.ascii	"\000"
	.ascii	"\000\000\000\000\000\000\000\000"
	.ascii	"\351\000\000\000"
	.ascii	"devClear\000"
	.ascii	"\000"
	.ascii	"\000"
	.ascii	"\000"
	.ascii	"\000\000\000\000\000\000\000\000"
	.ascii	"\002\001\000\000"
	.ascii	"devPush\000"
	.ascii	"\000"
	.ascii	"\000"
	.ascii	"\000"
	.ascii	"\000\000\000\000\000\000\000\000"
	.ascii	"\007\001\000\000"
	.ascii	"devVariance\000"
	.ascii	"\000"
	.ascii	"\000"
	.ascii	"\000"
	.ascii	"\000\000\000\000\000\000\000\000"
	.ascii	"\013\001\000\000"
	.ascii	"devStandardDeviation\000"
	.ascii	"\000"
	.ascii	"\000"
	.ascii	"\000"
	.ascii	"\000\000\000\000\000\000\000\000"
	.ascii	"\015\001\000\000"
	.ascii	"degreesToRadians\000"
	.ascii	"\000"
	.ascii	"\000"
	.ascii	"\000"
	.ascii	"\000\000\000\000\000\000\000\000"
	.ascii	"\031\001\000\000"
	.ascii	"scaleRange\000"
	.ascii	"\000"
	.ascii	"\000"
	.ascii	"\000"
	.ascii	"\000\000\000\000\000\000\000\000"
	.ascii	"!\001\000\000"
	.ascii	"normalizeV\000"
	.ascii	"\000"
	.ascii	"\000"
	.ascii	"\000"
	.ascii	"\000\000\000\000\000\000\000\000"
	.ascii	"2\001\000\000"
	.ascii	"buildRotationMatrix\000"
	.ascii	"\000"
	.ascii	"\000"
	.ascii	"\000"
	.ascii	"\000\000\000\000\000\000\000\000"
	.ascii	"P\001\000\000"
	.ascii	"rotateV\000"
	.ascii	"\000"
	.ascii	"\000"
	.ascii	"\000"
	.ascii	"\000\000\000\000\000\000\000\000"
	.ascii	"U\001\000\000"
	.ascii	"quickMedianFilter3\000"
	.ascii	"\000"
	.ascii	"\000"
	.ascii	"\000"
	.ascii	"\000\000\000\000\000\000\000\000"
	.ascii	"Z\001\000\000"
	.ascii	"quickMedianFilter5\000"
	.ascii	"\000"
	.ascii	"\000"
	.ascii	"\000"
	.ascii	"\000\000\000\000\000\000\000\000"
	.ascii	"\\\001\000\000"
	.ascii	"quickMedianFilter7\000"
	.ascii	"\000"
	.ascii	"\000"
	.ascii	"\000"
	.ascii	"\000\000\000\000\000\000\000\000"
	.ascii	"^\001\000\000"
	.ascii	"quickMedianFilter9\000"
	.ascii	"\000"
	.ascii	"\000"
	.ascii	"\000"
	.ascii	"\000\000\000\000\000\000\000\000"
	.ascii	"`\001\000\000"
	.ascii	"arraySubInt32\000"
	.ascii	"\000"
	.ascii	"\000"
	.ascii	"\000"
	.ascii	"\000\000\000\000\000\000\000\000"
	.ascii	"g\001\000\000"
	.text
	.section	.gnu.lto_.opts,"",%progbits
	.ascii	"'-fmath-errno' '-fsigned-zeros' '-ftrapping-math' '"
	.ascii	"-fno-trapv' '-fno-openmp' '-fno-openacc' '-mthumb' "
	.ascii	"'-mcpu=cortex-m4' '-mfloat-abi=hard' '-mfpu=fpv4-sp"
	.ascii	"-d16' '-ggdb3' '-Os' '-fsingle-precision-constant' "
	.ascii	"'-flto' '-fuse-linker-plugin' '-ffunction-sections'"
	.ascii	" '-fdata-sections' '-fverbose-asm' '-ffat-lto-objec"
	.ascii	"ts'\000"
	.text
	.cfi_sections	.debug_frame
	.section	.text.sinf,"ax",%progbits
	.align	1
	.global	sinf
	.syntax unified
	.thumb
	.thumb_func
	.fpu fpv4-sp-d16
	.type	sinf, %function
sinf:
.LFB0:
	.file 1 "./src/main/common/maths.c"
	.loc 1 44 0
	.cfi_startproc
	@ args = 0, pretend = 0, frame = 0
	@ frame_needed = 0, uses_anonymous_args = 0
	@ link register save eliminated.
.LVL0:
	.loc 1 45 0
	vcvt.s32.f32	s15, s0	@ xint, x
	vmov	r3, s15	@ int	@ xint, xint
	.loc 1 46 0
	adds	r3, r3, #32	@ tmp125, xint,
	cmp	r3, #64	@ tmp125,
	bhi	.L11	@,
.LBB4:
.LBB5:
	.loc 1 47 0
	vldr.32	s15, .L15	@ tmp127,
	vldr.32	s14, .L15+4	@ tmp146,
.LVL1:
.L3:
	vcmpe.f32	s0, s15	@ x, tmp127
	vmrs	APSR_nzcv, FPSCR
	bgt	.L4	@,
	.loc 1 48 0
	vldr.32	s15, .L15+8	@ tmp129,
	vldr.32	s14, .L15+4	@ tmp145,
.L5:
	vcmpe.f32	s0, s15	@ x, tmp129
	vmrs	APSR_nzcv, FPSCR
	bmi	.L6	@,
	.loc 1 49 0
	vldr.32	s15, .L15+12	@ tmp130,
	vcmpe.f32	s0, s15	@ x, tmp130
	vmrs	APSR_nzcv, FPSCR
	ble	.L14	@,
	vsub.f32	s0, s0, s15	@ _13, x, tmp130
.LVL2:
	vsub.f32	s0, s15, s0	@ x, tmp130, _13
.LVL3:
.L9:
	.loc 1 51 0
	vmul.f32	s15, s0, s0	@ x2, x, x
.LVL4:
	.loc 1 52 0
	vldr.32	s13, .L15+16	@ tmp138,
	vldr.32	s14, .L15+20	@ tmp139,
	vfma.f32	s14, s15, s13	@ tmp137, x2, tmp138
	vldr.32	s13, .L15+24	@ tmp141,
	vfma.f32	s13, s15, s14	@ tmp140, x2, tmp137
	vldr.32	s14, .L15+28	@ tmp143,
	vfma.f32	s14, s15, s13	@ tmp143, x2, tmp140
	vmul.f32	s12, s0, s15	@ tmp136, x, x2
	vfma.f32	s0, s12, s14	@ <retval>, tmp136, tmp142
.LVL5:
	bx	lr	@
.LVL6:
.L4:
	.loc 1 47 0
	vsub.f32	s0, s0, s14	@ x, x, tmp146
.LVL7:
	b	.L3	@
.L6:
	.loc 1 48 0
	vadd.f32	s0, s0, s14	@ x, x, tmp145
.LVL8:
	b	.L5	@
.L14:
	.loc 1 50 0
	vldr.32	s14, .L15+32	@ tmp133,
	vcmpe.f32	s0, s14	@ x, tmp133
	vmrs	APSR_nzcv, FPSCR
	itt	mi
	vaddmi.f32	s0, s0, s15	@ _15, x, tmp130
.LVL9:
	vsubmi.f32	s0, s14, s0	@ x, tmp133, _15
.LVL10:
	b	.L9	@
.LVL11:
.L11:
.LBE5:
.LBE4:
	.loc 1 46 0
	vldr.32	s0, .L15+36	@ <retval>,
.LVL12:
	.loc 1 53 0
	bx	lr	@
.L16:
	.align	2
.L15:
	.word	1078530011
	.word	1086918619
	.word	3226013659
	.word	1070141403
	.word	909016218
	.word	3109007354
	.word	1007191861
	.word	3190467236
	.word	3217625051
	.word	0
	.cfi_endproc
.LFE0:
	.size	sinf, .-sinf
	.section	.text.cosf,"ax",%progbits
	.align	1
	.global	cosf
	.syntax unified
	.thumb
	.thumb_func
	.fpu fpv4-sp-d16
	.type	cosf, %function
cosf:
.LFB1:
	.loc 1 56 0
	.cfi_startproc
	@ args = 0, pretend = 0, frame = 0
	@ frame_needed = 0, uses_anonymous_args = 0
	@ link register save eliminated.
.LVL13:
	.loc 1 57 0
	vldr.32	s15, .L18	@ tmp114,
	vadd.f32	s0, s0, s15	@, x, tmp114
.LVL14:
	b	sinf	@
.LVL15:
.L19:
	.align	2
.L18:
	.word	1070141403
	.cfi_endproc
.LFE1:
	.size	cosf, .-cosf
	.section	.text.atan2f,"ax",%progbits
	.align	1
	.global	atan2f
	.syntax unified
	.thumb
	.thumb_func
	.fpu fpv4-sp-d16
	.type	atan2f, %function
atan2f:
.LFB2:
	.loc 1 65 0
	.cfi_startproc
	@ args = 0, pretend = 0, frame = 0
	@ frame_needed = 0, uses_anonymous_args = 0
	@ link register save eliminated.
.LVL16:
	.loc 1 75 0
	vabs.f32	s13, s1	@ absX, x
.LVL17:
	.loc 1 76 0
	vabs.f32	s14, s0	@ absY, y
.LVL18:
	.loc 1 77 0
	vcmpe.f32	s13, s14	@ absX, absY
	vmrs	APSR_nzcv, FPSCR
	ite	le	@
	vmovle.f32	s12, s14	@, iftmp.1_5, absY
	vmovgt.f32	s12, s13	@, iftmp.1_5, absX
.LVL19:
	.loc 1 78 0
	vcmp.f32	s12, #0	@ iftmp.1_5
	vmrs	APSR_nzcv, FPSCR
	beq	.L31	@,
	.loc 1 78 0 is_stmt 0 discriminator 1
	vcmpe.f32	s13, s14	@ absX, absY
	vmrs	APSR_nzcv, FPSCR
	ite	pl	@
	vmovpl.f32	s11, s14	@, iftmp.2_6, absY
	vmovmi.f32	s11, s13	@, iftmp.2_6, absX
	vdiv.f32	s15, s11, s12	@ res, iftmp.2_6, iftmp.1_5
.LVL20:
.L22:
	.loc 1 80 0 is_stmt 1
	vldr.32	s12, .L36	@ tmp131,
	vldr.32	s11, .L36+4	@ tmp132,
	vldr.32	s10, .L36+8	@ tmp141,
	vfma.f32	s11, s15, s12	@ tmp130, res, tmp131
	vldr.32	s12, .L36+12	@ tmp134,
	vfma.f32	s12, s15, s11	@ tmp133, res, tmp130
	vldr.32	s11, .L36+16	@ tmp136,
	vfma.f32	s11, s15, s12	@ tmp135, res, tmp133
	vldr.32	s12, .L36+20	@ tmp138,
	vfma.f32	s12, s15, s11	@ tmp137, res, tmp135
	vldr.32	s11, .L36+24	@ tmp140,
	vfma.f32	s10, s15, s11	@ tmp139, res, tmp140
	vmov.f32	s11, #1.0e+0	@ tmp142,
	vfma.f32	s11, s15, s10	@ _24, res, tmp139
	vneg.f32	s12, s12	@ _20, tmp137
	vdiv.f32	s15, s12, s11	@ <retval>, _20, _24
.LVL21:
	.loc 1 81 0
	vcmpe.f32	s13, s14	@ absX, absY
	vmrs	APSR_nzcv, FPSCR
	it	mi
	vldrmi.32	s14, .L36+28	@ tmp143,
.LVL22:
	.loc 1 82 0
	vcmpe.f32	s1, #0	@ x
	.loc 1 81 0
	it	mi
	vsubmi.f32	s15, s14, s15	@ <retval>, tmp143, <retval>
.LVL23:
	.loc 1 82 0
	vmrs	APSR_nzcv, FPSCR
	it	mi
	vldrmi.32	s14, .L36+32	@ tmp145,
	.loc 1 83 0
	vcmpe.f32	s0, #0	@ y
	.loc 1 82 0
	it	mi
	vsubmi.f32	s15, s14, s15	@ <retval>, tmp145, <retval>
.LVL24:
	.loc 1 83 0
	vmrs	APSR_nzcv, FPSCR
	it	mi
	vnegmi.f32	s15, s15	@ <retval>, <retval>
.LVL25:
	.loc 1 85 0
	vmov.f32	s0, s15	@, <retval>
.LVL26:
	bx	lr	@
.LVL27:
.L31:
	.loc 1 79 0
	vldr.32	s15, .L36+36	@ res,
	b	.L22	@
.L37:
	.align	2
.L36:
	.word	1028524345
	.word	3198072291
	.word	1041670761
	.word	3189176968
	.word	3212836421
	.word	3030966183
	.word	1059388313
	.word	1070141403
	.word	1078530011
	.word	0
	.cfi_endproc
.LFE2:
	.size	atan2f, .-atan2f
	.section	.text.acosf,"ax",%progbits
	.align	1
	.global	acosf
	.syntax unified
	.thumb
	.thumb_func
	.fpu fpv4-sp-d16
	.type	acosf, %function
acosf:
.LFB3:
	.loc 1 92 0
	.cfi_startproc
	@ args = 0, pretend = 0, frame = 0
	@ frame_needed = 0, uses_anonymous_args = 0
.LVL28:
	push	{r3, lr}	@
	.cfi_def_cfa_offset 8
	.cfi_offset 3, -8
	.cfi_offset 14, -4
	vpush.64	{d8}	@
	.cfi_def_cfa_offset 16
	.cfi_offset 80, -16
	.cfi_offset 81, -12
	.loc 1 93 0
	vabs.f32	s16, s0	@ xa, x
.LVL29:
	.loc 1 92 0
	vmov.f32	s17, s0	@ x, x
	.loc 1 94 0
	vmov.f32	s0, #1.0e+0	@ tmp120,
.LVL30:
	vsub.f32	s0, s0, s16	@, tmp120, xa
	bl	sqrtf	@
.LVL31:
	vldr.32	s14, .L42	@ tmp122,
	vldr.32	s15, .L42+4	@ tmp123,
	vfma.f32	s15, s16, s14	@ tmp121, xa, tmp122
	vldr.32	s14, .L42+8	@ tmp125,
	vfma.f32	s14, s16, s15	@ tmp124, xa, tmp121
	vldr.32	s15, .L42+12	@ tmp127,
	vfma.f32	s15, s16, s14	@ tmp126, xa, tmp124
	.loc 1 95 0
	vcmpe.f32	s17, #0	@ x
	.loc 1 99 0
	vldm	sp!, {d8}	@
	.cfi_restore 80
	.cfi_restore 81
	.cfi_def_cfa_offset 8
.LVL32:
	.loc 1 95 0
	vmrs	APSR_nzcv, FPSCR
	.loc 1 94 0
	vmul.f32	s0, s15, s0	@ <retval>, tmp126,
.LVL33:
	.loc 1 96 0
	itt	mi
	vldrmi.32	s15, .L42+16	@ tmp129,
	vsubmi.f32	s0, s15, s0	@ <retval>, tmp129, <retval>
.LVL34:
	.loc 1 99 0
	pop	{r3, pc}	@
.L43:
	.align	2
.L42:
	.word	3164171824
	.word	1033377319
	.word	3193517188
	.word	1070140836
	.word	1078530011
	.cfi_endproc
.LFE3:
	.size	acosf, .-acosf
	.section	.text.applyDeadband,"ax",%progbits
	.align	1
	.global	applyDeadband
	.syntax unified
	.thumb
	.thumb_func
	.fpu fpv4-sp-d16
	.type	applyDeadband, %function
applyDeadband:
.LFB4:
	.loc 1 103 0
	.cfi_startproc
	@ args = 0, pretend = 0, frame = 0
	@ frame_needed = 0, uses_anonymous_args = 0
	@ link register save eliminated.
.LVL35:
	.loc 1 104 0
	eor	r3, r0, r0, asr #31	@ tmp114, value, value,
	sub	r3, r3, r0, asr #31	@ tmp114, tmp114, value,
	cmp	r3, r1	@ tmp114, deadband
	blt	.L47	@,
.LVL36:
.LBB8:
.LBB9:
	.loc 1 106 0
	cmp	r0, #0	@ value,
	ble	.L46	@,
	.loc 1 107 0
	subs	r0, r0, r1	@ value, value, deadband
.LVL37:
	bx	lr	@
.LVL38:
.L46:
	.loc 1 108 0
	beq	.L45	@,
	.loc 1 109 0
	add	r0, r0, r1	@ value, deadband
.LVL39:
	bx	lr	@
.LVL40:
.L47:
.LBE9:
.LBE8:
	.loc 1 105 0
	movs	r0, #0	@ value,
.LVL41:
.L45:
	.loc 1 112 0
	bx	lr	@
	.cfi_endproc
.LFE4:
	.size	applyDeadband, .-applyDeadband
	.section	.text.constrain,"ax",%progbits
	.align	1
	.global	constrain
	.syntax unified
	.thumb
	.thumb_func
	.fpu fpv4-sp-d16
	.type	constrain, %function
constrain:
.LFB5:
	.loc 1 115 0
	.cfi_startproc
	@ args = 0, pretend = 0, frame = 0
	@ frame_needed = 0, uses_anonymous_args = 0
	@ link register save eliminated.
.LVL42:
	.loc 1 116 0
	cmp	r0, r1	@ amt, low
	blt	.L49	@,
	cmp	r0, r2	@ amt, high
	mov	r1, r0	@ amt, amt
.LVL43:
	it	ge
	movge	r1, r2	@ amt, high
.L49:
	.loc 1 122 0
	mov	r0, r1	@, low
.LVL44:
	bx	lr	@
	.cfi_endproc
.LFE5:
	.size	constrain, .-constrain
	.section	.text.constrainf,"ax",%progbits
	.align	1
	.global	constrainf
	.syntax unified
	.thumb
	.thumb_func
	.fpu fpv4-sp-d16
	.type	constrainf, %function
constrainf:
.LFB6:
	.loc 1 125 0
	.cfi_startproc
	@ args = 0, pretend = 0, frame = 0
	@ frame_needed = 0, uses_anonymous_args = 0
	@ link register save eliminated.
.LVL45:
	.loc 1 126 0
	vcmpe.f32	s0, s1	@ amt, low
	vmrs	APSR_nzcv, FPSCR
	bmi	.L51	@,
	.loc 1 128 0
	vcmpe.f32	s0, s2	@ amt, high
	vmrs	APSR_nzcv, FPSCR
	.loc 1 131 0
	ite	le	@
	vmovle.f32	s1, s0	@, low, amt
	vmovgt.f32	s1, s2	@, low, high
.LVL46:
.L51:
	.loc 1 132 0
	vmov.f32	s0, s1	@, low
.LVL47:
	bx	lr	@
	.cfi_endproc
.LFE6:
	.size	constrainf, .-constrainf
	.section	.text.devClear,"ax",%progbits
	.align	1
	.global	devClear
	.syntax unified
	.thumb
	.thumb_func
	.fpu fpv4-sp-d16
	.type	devClear, %function
devClear:
.LFB7:
	.loc 1 135 0
	.cfi_startproc
	@ args = 0, pretend = 0, frame = 0
	@ frame_needed = 0, uses_anonymous_args = 0
	@ link register save eliminated.
.LVL48:
	.loc 1 136 0
	movs	r3, #0	@ tmp111,
	str	r3, [r0, #16]	@ tmp111, dev_2(D)->m_n
	bx	lr	@
	.cfi_endproc
.LFE7:
	.size	devClear, .-devClear
	.section	.text.devPush,"ax",%progbits
	.align	1
	.global	devPush
	.syntax unified
	.thumb
	.thumb_func
	.fpu fpv4-sp-d16
	.type	devPush, %function
devPush:
.LFB8:
	.loc 1 140 0
	.cfi_startproc
	@ args = 0, pretend = 0, frame = 0
	@ frame_needed = 0, uses_anonymous_args = 0
	@ link register save eliminated.
.LVL49:
	.loc 1 141 0
	ldr	r3, [r0, #16]	@ dev_3(D)->m_n, dev_3(D)->m_n
	adds	r3, r3, #1	@ _5, dev_3(D)->m_n,
	.loc 1 142 0
	cmp	r3, #1	@ _5,
	.loc 1 141 0
	str	r3, [r0, #16]	@ _5, dev_3(D)->m_n
	.loc 1 142 0
	bne	.L55	@,
	.loc 1 144 0
	movs	r3, #0	@ tmp123,
	.loc 1 143 0
	vstr.32	s0, [r0, #4]	@ x, dev_3(D)->m_newM
	vstr.32	s0, [r0]	@ x, dev_3(D)->m_oldM
	.loc 1 144 0
	str	r3, [r0, #8]	@ float	@ tmp123, dev_3(D)->m_oldS
	bx	lr	@
.L55:
	.loc 1 146 0
	vldr.32	s12, [r0]	@ _11, dev_3(D)->m_oldM
	vmov	s15, r3	@ int	@ _5, _5
	vsub.f32	s13, s0, s12	@ _12, x, _11
	vcvt.f32.s32	s15, s15	@ tmp124, _5
	vdiv.f32	s14, s13, s15	@ tmp125, _12, tmp124
	vadd.f32	s15, s14, s12	@ _15, tmp125, _11
	.loc 1 147 0
	vldr.32	s14, [r0, #8]	@ dev_3(D)->m_oldS, dev_3(D)->m_oldS
	.loc 1 146 0
	vstr.32	s15, [r0, #4]	@ _15, dev_3(D)->m_newM
	.loc 1 147 0
	vsub.f32	s0, s0, s15	@ tmp126, x, _15
.LVL50:
	.loc 1 148 0
	vstr.32	s15, [r0]	@ _15, dev_3(D)->m_oldM
	.loc 1 147 0
	vfma.f32	s14, s13, s0	@ _20, _12, tmp126
	vstr.32	s14, [r0, #12]	@ _20, dev_3(D)->m_newS
	.loc 1 149 0
	vstr.32	s14, [r0, #8]	@ _20, dev_3(D)->m_oldS
	bx	lr	@
	.cfi_endproc
.LFE8:
	.size	devPush, .-devPush
	.section	.text.devVariance,"ax",%progbits
	.align	1
	.global	devVariance
	.syntax unified
	.thumb
	.thumb_func
	.fpu fpv4-sp-d16
	.type	devVariance, %function
devVariance:
.LFB9:
	.loc 1 154 0
	.cfi_startproc
	@ args = 0, pretend = 0, frame = 0
	@ frame_needed = 0, uses_anonymous_args = 0
	@ link register save eliminated.
.LVL51:
	.loc 1 155 0
	ldr	r3, [r0, #16]	@ _4, dev_3(D)->m_n
	cmp	r3, #1	@ _4,
	itttt	gt
	addgt	r3, r3, #-1	@ tmp116, _4,
	vmovgt	s15, r3	@ int	@ tmp116, tmp116
	vldrgt.32	s14, [r0, #12]	@ dev_3(D)->m_newS, dev_3(D)->m_newS
	vcvtgt.f32.s32	s15, s15	@ tmp117, tmp116
	ite	gt
	vdivgt.f32	s0, s14, s15	@ <retval>, dev_3(D)->m_newS, tmp117
	vldrle.32	s0, .L60	@ <retval>,
	.loc 1 156 0
	bx	lr	@
.L61:
	.align	2
.L60:
	.word	0
	.cfi_endproc
.LFE9:
	.size	devVariance, .-devVariance
	.section	.text.devStandardDeviation,"ax",%progbits
	.align	1
	.global	devStandardDeviation
	.syntax unified
	.thumb
	.thumb_func
	.fpu fpv4-sp-d16
	.type	devStandardDeviation, %function
devStandardDeviation:
.LFB10:
	.loc 1 159 0
	.cfi_startproc
	@ args = 0, pretend = 0, frame = 0
	@ frame_needed = 0, uses_anonymous_args = 0
.LVL52:
	push	{r3, lr}	@
	.cfi_def_cfa_offset 8
	.cfi_offset 3, -8
	.cfi_offset 14, -4
	.loc 1 160 0
	bl	devVariance	@
.LVL53:
	.loc 1 161 0
	pop	{r3, lr}	@
	.cfi_restore 14
	.cfi_restore 3
	.cfi_def_cfa_offset 0
	.loc 1 160 0
	b	sqrtf	@
.LVL54:
	.cfi_endproc
.LFE10:
	.size	devStandardDeviation, .-devStandardDeviation
	.section	.text.degreesToRadians,"ax",%progbits
	.align	1
	.global	degreesToRadians
	.syntax unified
	.thumb
	.thumb_func
	.fpu fpv4-sp-d16
	.type	degreesToRadians, %function
degreesToRadians:
.LFB11:
	.loc 1 164 0
	.cfi_startproc
	@ args = 0, pretend = 0, frame = 0
	@ frame_needed = 0, uses_anonymous_args = 0
	@ link register save eliminated.
.LVL55:
	.loc 1 165 0
	vmov	s15, r0	@ int	@ degrees, degrees
	vcvt.f32.s32	s0, s15	@ tmp114, degrees
	.loc 1 166 0
	vldr.32	s15, .L64	@ tmp115,
	vmul.f32	s0, s0, s15	@, tmp114, tmp115
	bx	lr	@
.L65:
	.align	2
.L64:
	.word	1016003125
	.cfi_endproc
.LFE11:
	.size	degreesToRadians, .-degreesToRadians
	.section	.text.scaleRange,"ax",%progbits
	.align	1
	.global	scaleRange
	.syntax unified
	.thumb
	.thumb_func
	.fpu fpv4-sp-d16
	.type	scaleRange, %function
scaleRange:
.LFB12:
	.loc 1 169 0
	.cfi_startproc
	@ args = 4, pretend = 0, frame = 0
	@ frame_needed = 0, uses_anonymous_args = 0
.LVL56:
	push	{r4, lr}	@
	.cfi_def_cfa_offset 8
	.cfi_offset 4, -8
	.cfi_offset 14, -4
	.loc 1 169 0
	ldr	r4, [sp, #8]	@ destMax, destMax
	.loc 1 170 0
	subs	r0, r0, r1	@ tmp123, x, srcMin
.LVL57:
	subs	r3, r4, r3	@ _3, destMax, destMin
.LVL58:
	muls	r0, r3, r0	@ a, _3
	.loc 1 171 0
	subs	r2, r2, r1	@ b, srcMax, srcMin
.LVL59:
	.loc 1 172 0
	sdiv	r0, r0, r2	@ tmp127, a, b
	subs	r0, r0, r3	@ tmp128, tmp127, _3
	.loc 1 173 0
	add	r0, r0, r4	@, destMax
	pop	{r4, pc}	@
	.cfi_endproc
.LFE12:
	.size	scaleRange, .-scaleRange
	.section	.text.normalizeV,"ax",%progbits
	.align	1
	.global	normalizeV
	.syntax unified
	.thumb
	.thumb_func
	.fpu fpv4-sp-d16
	.type	normalizeV, %function
normalizeV:
.LFB13:
	.loc 1 177 0
	.cfi_startproc
	@ args = 0, pretend = 0, frame = 0
	@ frame_needed = 0, uses_anonymous_args = 0
.LVL60:
	.loc 1 180 0
	vldr.32	s0, [r0, #4]	@ _6, src_3(D)->Y
	vldr.32	s14, [r0]	@ _4, src_3(D)->X
	vldr.32	s15, [r0, #8]	@ _9, src_3(D)->Z
	vmul.f32	s0, s0, s0	@ tmp125, _6, _6
	.loc 1 177 0
	push	{r3, r4, r5, lr}	@
	.cfi_def_cfa_offset 16
	.cfi_offset 3, -16
	.cfi_offset 4, -12
	.cfi_offset 5, -8
	.cfi_offset 14, -4
	.loc 1 180 0
	vfma.f32	s0, s14, s14	@ tmp126, _4, _4
	.loc 1 177 0
	mov	r4, r0	@ src, src
	mov	r5, r1	@ dest, dest
	.loc 1 180 0
	vfma.f32	s0, s15, s15	@, _9, _9
	bl	sqrtf	@
.LVL61:
	.loc 1 181 0
	vcmp.f32	s0, #0	@ length
	vmrs	APSR_nzcv, FPSCR
	beq	.L67	@,
	.loc 1 182 0
	vldr.32	s14, [r4]	@ src_3(D)->X, src_3(D)->X
	vdiv.f32	s15, s14, s0	@ tmp129, src_3(D)->X, length
	.loc 1 183 0
	vldr.32	s14, [r4, #4]	@ src_3(D)->Y, src_3(D)->Y
	.loc 1 182 0
	vstr.32	s15, [r5]	@ tmp129, dest_16(D)->X
	.loc 1 183 0
	vdiv.f32	s15, s14, s0	@ tmp131, src_3(D)->Y, length
	.loc 1 184 0
	vldr.32	s14, [r4, #8]	@ src_3(D)->Z, src_3(D)->Z
	.loc 1 183 0
	vstr.32	s15, [r5, #4]	@ tmp131, dest_16(D)->Y
	.loc 1 184 0
	vdiv.f32	s15, s14, s0	@ tmp133, src_3(D)->Z, length
	vstr.32	s15, [r5, #8]	@ tmp133, dest_16(D)->Z
.L67:
	pop	{r3, r4, r5, pc}	@
	.cfi_endproc
.LFE13:
	.size	normalizeV, .-normalizeV
	.section	.text.buildRotationMatrix,"ax",%progbits
	.align	1
	.global	buildRotationMatrix
	.syntax unified
	.thumb
	.thumb_func
	.fpu fpv4-sp-d16
	.type	buildRotationMatrix, %function
buildRotationMatrix:
.LFB14:
	.loc 1 189 0
	.cfi_startproc
	@ args = 0, pretend = 0, frame = 0
	@ frame_needed = 0, uses_anonymous_args = 0
.LVL62:
	.loc 1 193 0
	vldr.32	s10, [r0]	@ _3, delta_2(D)->angles.roll
	.loc 1 189 0
	push	{r3, lr}	@
	.cfi_def_cfa_offset 8
	.cfi_offset 3, -8
	.cfi_offset 14, -4
	.loc 1 193 0
	vmov.f32	s0, s10	@, _3
	bl	cosf	@
.LVL63:
	vmov.f32	s11, s0	@ cosx,
.LVL64:
	.loc 1 194 0
	vmov.f32	s0, s10	@, _3
.LVL65:
	bl	sinf	@
.LVL66:
	.loc 1 195 0
	vldr.32	s9, [r0, #4]	@ _6, delta_2(D)->angles.pitch
	.loc 1 194 0
	vmov.f32	s10, s0	@ sinx,
.LVL67:
	.loc 1 195 0
	vmov.f32	s0, s9	@, _6
.LVL68:
	bl	cosf	@
.LVL69:
	vmov.f32	s8, s0	@ cosy,
.LVL70:
	.loc 1 196 0
	vmov.f32	s0, s9	@, _6
.LVL71:
	bl	sinf	@
.LVL72:
	.loc 1 197 0
	vldr.32	s6, [r0, #8]	@ _9, delta_2(D)->angles.yaw
	.loc 1 196 0
	vmov.f32	s7, s0	@ siny,
.LVL73:
	.loc 1 197 0
	vmov.f32	s0, s6	@, _9
.LVL74:
	bl	cosf	@
.LVL75:
	vmov.f32	s9, s0	@ cosz,
.LVL76:
	.loc 1 198 0
	vmov.f32	s0, s6	@, _9
.LVL77:
	bl	sinf	@
.LVL78:
	.loc 1 200 0
	vmul.f32	s12, s11, s9	@ coszcosx, cosx, cosz
.LVL79:
	.loc 1 201 0
	vmul.f32	s13, s11, s0	@ sinzcosx, cosx, sinz
.LVL80:
	.loc 1 202 0
	vmul.f32	s15, s10, s9	@ coszsinx, sinx, cosz
.LVL81:
	.loc 1 205 0
	vmul.f32	s9, s8, s9	@ tmp137, cosy, cosz
.LVL82:
	.loc 1 203 0
	vmul.f32	s14, s10, s0	@ sinzsinx, sinx, sinz
.LVL83:
	.loc 1 205 0
	vstr.32	s9, [r1]	@ tmp137, *matrix_17(D)
	.loc 1 208 0
	vmov.f32	s9, s13	@ tmp140, sinzcosx
	vfma.f32	s9, s7, s15	@ tmp140, siny, coszsinx
	.loc 1 209 0
	vmov.f32	s6, s12	@ tmp142, coszcosx
	.loc 1 208 0
	vstr.32	s9, [r1, #12]	@ tmp140, MEM[(float[3] *)matrix_17(D) + 12B]
	.loc 1 209 0
	vneg.f32	s9, s7	@ tmp141, siny
	vfma.f32	s6, s9, s14	@ tmp142, tmp141, sinzsinx
	.loc 1 212 0
	vfma.f32	s15, s7, s13	@ tmp147, siny, sinzcosx
.LVL84:
	.loc 1 211 0
	vfma.f32	s14, s9, s12	@ tmp146, tmp141, coszcosx
.LVL85:
	.loc 1 206 0
	vnmul.f32	s0, s8, s0	@ tmp139, cosy, sinz
.LVL86:
	.loc 1 210 0
	vnmul.f32	s10, s10, s8	@ tmp144, sinx, cosy
.LVL87:
	.loc 1 213 0
	vmul.f32	s11, s11, s8	@ tmp148, cosx, cosy
.LVL88:
	.loc 1 206 0
	vstr.32	s0, [r1, #4]	@ tmp139, *matrix_17(D)
	.loc 1 207 0
	vstr.32	s7, [r1, #8]	@ siny, *matrix_17(D)
	.loc 1 209 0
	vstr.32	s6, [r1, #16]	@ tmp142, MEM[(float[3] *)matrix_17(D) + 12B]
	.loc 1 210 0
	vstr.32	s10, [r1, #20]	@ tmp144, MEM[(float[3] *)matrix_17(D) + 12B]
	.loc 1 211 0
	vstr.32	s14, [r1, #24]	@ tmp146, MEM[(float[3] *)matrix_17(D) + 24B]
	.loc 1 212 0
	vstr.32	s15, [r1, #28]	@ tmp147, MEM[(float[3] *)matrix_17(D) + 24B]
	.loc 1 213 0
	vstr.32	s11, [r1, #32]	@ tmp148, MEM[(float[3] *)matrix_17(D) + 24B]
	pop	{r3, pc}	@
	.cfi_endproc
.LFE14:
	.size	buildRotationMatrix, .-buildRotationMatrix
	.section	.text.rotateV,"ax",%progbits
	.align	1
	.global	rotateV
	.syntax unified
	.thumb
	.thumb_func
	.fpu fpv4-sp-d16
	.type	rotateV, %function
rotateV:
.LFB15:
	.loc 1 218 0
	.cfi_startproc
	@ args = 0, pretend = 0, frame = 40
	@ frame_needed = 0, uses_anonymous_args = 0
.LVL89:
	push	{lr}	@
	.cfi_def_cfa_offset 4
	.cfi_offset 14, -4
	sub	sp, sp, #44	@,,
	.cfi_def_cfa_offset 48
	.loc 1 218 0
	mov	r2, r0	@ v, v
	mov	r0, r1	@ delta, delta
.LVL90:
	.loc 1 223 0
	add	r1, sp, #4	@,,
.LVL91:
	.loc 1 219 0
	vldr.32	s3, [r2]	@ v_tmp$X, MEM[(struct fp_vector *)v_2(D)]
.LVL92:
	vldr.32	s5, [r2, #4]	@ v_tmp$Y, MEM[(struct fp_vector *)v_2(D) + 4B]
.LVL93:
	vldr.32	s4, [r2, #8]	@ v_tmp$Z, MEM[(struct fp_vector *)v_2(D) + 8B]
.LVL94:
	.loc 1 223 0
	bl	buildRotationMatrix	@
.LVL95:
	.loc 1 225 0
	vldr.32	s15, [sp, #16]	@ matrix, matrix
	vldr.32	s14, [sp, #4]	@ matrix, matrix
	vmul.f32	s15, s5, s15	@ tmp134, v_tmp$Y, matrix
	vfma.f32	s15, s14, s3	@ tmp136, matrix, v_tmp$X
	vldr.32	s14, [sp, #28]	@ matrix, matrix
	vfma.f32	s15, s14, s4	@ tmp138, matrix, v_tmp$Z
	.loc 1 226 0
	vldr.32	s14, [sp, #8]	@ matrix, matrix
	.loc 1 225 0
	vstr.32	s15, [r2]	@ tmp138, v_2(D)->X
	.loc 1 226 0
	vldr.32	s15, [sp, #20]	@ matrix, matrix
	vmul.f32	s15, s5, s15	@ tmp140, v_tmp$Y, matrix
	vfma.f32	s15, s14, s3	@ tmp142, matrix, v_tmp$X
	vldr.32	s14, [sp, #32]	@ matrix, matrix
	vfma.f32	s15, s14, s4	@ tmp144, matrix, v_tmp$Z
	vstr.32	s15, [r2, #4]	@ tmp144, v_2(D)->Y
	.loc 1 227 0
	vldr.32	s15, [sp, #24]	@ matrix, matrix
	vmul.f32	s5, s5, s15	@ tmp146, v_tmp$Y, matrix
.LVL96:
	vldr.32	s15, [sp, #12]	@ matrix, matrix
	vfma.f32	s5, s15, s3	@ tmp148, matrix, v_tmp$X
	vldr.32	s15, [sp, #36]	@ matrix, matrix
	vfma.f32	s5, s15, s4	@ tmp150, matrix, v_tmp$Z
	vstr.32	s5, [r2, #8]	@ tmp150, v_2(D)->Z
.LVL97:
	.loc 1 228 0
	add	sp, sp, #44	@,,
	.cfi_def_cfa_offset 4
	@ sp needed	@
	ldr	pc, [sp], #4	@
	.cfi_endproc
.LFE15:
	.size	rotateV, .-rotateV
	.section	.text.quickMedianFilter3,"ax",%progbits
	.align	1
	.global	quickMedianFilter3
	.syntax unified
	.thumb
	.thumb_func
	.fpu fpv4-sp-d16
	.type	quickMedianFilter3, %function
quickMedianFilter3:
.LFB16:
	.loc 1 238 0
	.cfi_startproc
	@ args = 0, pretend = 0, frame = 0
	@ frame_needed = 0, uses_anonymous_args = 0
	@ link register save eliminated.
.LVL98:
.LBB10:
	.loc 1 240 0
	ldr	r3, [r0]	@ p$1, *v_9(D)
.LVL99:
	ldr	r2, [r0, #4]	@ p$0, MEM[(int32_t *)v_9(D) + 4B]
.LVL100:
	ldr	r0, [r0, #8]	@ _47, MEM[(int32_t *)v_9(D) + 8B]
.LVL101:
.LBE10:
	.loc 1 242 0
	cmp	r3, r2	@ p$1, p$0
	ittt	le
	movle	r1, r2	@ p$0, p$0
	movle	r2, r3	@ p$0, p$1
.LVL102:
	movle	r3, r1	@ p$1, p$0
.LVL103:
	cmp	r0, r3	@ _47, p$1
	it	ge
	movge	r0, r3	@ p$1, p$1
.LVL104:
	.loc 1 244 0
	cmp	r0, r2	@ p$1, p$0
	it	lt
	movlt	r0, r2	@, p$0
.LVL105:
	bx	lr	@
	.cfi_endproc
.LFE16:
	.size	quickMedianFilter3, .-quickMedianFilter3
	.section	.text.quickMedianFilter5,"ax",%progbits
	.align	1
	.global	quickMedianFilter5
	.syntax unified
	.thumb
	.thumb_func
	.fpu fpv4-sp-d16
	.type	quickMedianFilter5, %function
quickMedianFilter5:
.LFB17:
	.loc 1 247 0
	.cfi_startproc
	@ args = 0, pretend = 0, frame = 24
	@ frame_needed = 0, uses_anonymous_args = 0
	@ link register save eliminated.
.LVL106:
	sub	sp, sp, #24	@,,
	.cfi_def_cfa_offset 24
.LBB11:
	.loc 1 249 0
	movs	r3, #0	@ i,
	add	r2, sp, #4	@ tmp159,,
.LVL107:
.L74:
	.loc 1 249 0 is_stmt 0 discriminator 3
	ldr	r1, [r0, r3, lsl #2]	@ MEM[base: v_13(D), index: _2, step: 4, offset: 0B], MEM[base: v_13(D), index: _2, step: 4, offset: 0B]
	str	r1, [r2, r3, lsl #2]	@ MEM[base: v_13(D), index: _2, step: 4, offset: 0B], MEM[symbol: p, index: _2, step: 4, offset: 0B]
	adds	r3, r3, #1	@ i, i,
.LVL108:
	cmp	r3, #5	@ i,
	bne	.L74	@,
.LBE11:
	.loc 1 251 0 is_stmt 1
	ldr	r2, [sp, #8]	@ _19, p
	ldr	r3, [sp, #4]	@ _18, p
.LVL109:
	cmp	r3, r2	@ _18, _19
.LVL110:
.LBB12:
	itt	gt
	strgt	r3, [sp, #8]	@ _18, p
	strgt	r2, [sp, #4]	@ _19, p
.LBE12:
	ldr	r3, [sp, #16]	@ _22, p
.LVL111:
	ldr	r2, [sp, #20]	@ _23, p
	cmp	r3, r2	@ _22, _23
.LVL112:
.LBB13:
	itt	gt
	strgt	r2, [sp, #16]	@ _23, p
	strgt	r3, [sp, #20]	@ _22, p
.LBE13:
	ldr	r2, [sp, #16]	@ p, p
	ldr	r3, [sp, #4]	@ _26, p
.LVL113:
	cmp	r3, r2	@ _26, p
.LVL114:
.LBB14:
	it	gt
	strgt	r3, [sp, #16]	@ _26, p
.LBE14:
	.loc 1 252 0
	ldr	r2, [sp, #8]	@ p, p
	ldr	r3, [sp, #20]	@ _30, p
.LVL115:
	cmp	r2, r3	@ p, _30
.LVL116:
.LBB15:
	it	gt
	strgt	r3, [sp, #8]	@ _30, p
.LBE15:
	ldr	r2, [sp, #12]	@ _33, p
.LVL117:
	ldr	r3, [sp, #8]	@ _32, p
	cmp	r3, r2	@ _32, _33
.LVL118:
.LBB16:
	itt	gt
	strgt	r3, [sp, #12]	@ _32, p
	strgt	r2, [sp, #8]	@ _33, p
.LBE16:
	ldr	r3, [sp, #16]	@ _37, p
.LVL119:
	ldr	r2, [sp, #12]	@ p, p
	cmp	r2, r3	@ p, _37
.LVL120:
.LBB17:
	it	gt
	strgt	r3, [sp, #12]	@ _37, p
.LBE17:
	.loc 1 253 0
	ldr	r2, [sp, #12]	@ p, p
.LVL121:
	ldr	r3, [sp, #8]	@ _39, p
	cmp	r3, r2	@ _39, p
.LVL122:
.LBB18:
	it	gt
	strgt	r3, [sp, #12]	@ _39, p
.LBE18:
	.loc 1 255 0
	ldr	r0, [sp, #12]	@, p
.LVL123:
	add	sp, sp, #24	@,,
	.cfi_def_cfa_offset 0
.LVL124:
	@ sp needed	@
	bx	lr	@
	.cfi_endproc
.LFE17:
	.size	quickMedianFilter5, .-quickMedianFilter5
	.section	.text.quickMedianFilter7,"ax",%progbits
	.align	1
	.global	quickMedianFilter7
	.syntax unified
	.thumb
	.thumb_func
	.fpu fpv4-sp-d16
	.type	quickMedianFilter7, %function
quickMedianFilter7:
.LFB18:
	.loc 1 258 0
	.cfi_startproc
	@ args = 0, pretend = 0, frame = 32
	@ frame_needed = 0, uses_anonymous_args = 0
	@ link register save eliminated.
.LVL125:
	sub	sp, sp, #32	@,,
	.cfi_def_cfa_offset 32
.LBB19:
	.loc 1 260 0
	movs	r3, #0	@ i,
	add	r2, sp, #4	@ tmp141,,
.LVL126:
.L84:
	.loc 1 260 0 is_stmt 0 discriminator 3
	ldr	r1, [r0, r3, lsl #2]	@ MEM[base: v_19(D), index: _2, step: 4, offset: 0B], MEM[base: v_19(D), index: _2, step: 4, offset: 0B]
	str	r1, [r2, r3, lsl #2]	@ MEM[base: v_19(D), index: _2, step: 4, offset: 0B], MEM[symbol: p, index: _2, step: 4, offset: 0B]
	adds	r3, r3, #1	@ i, i,
.LVL127:
	cmp	r3, #7	@ i,
	bne	.L84	@,
.LBE19:
	.loc 1 262 0 is_stmt 1
	ldr	r3, [sp, #4]	@ _24, p
.LVL128:
	ldr	r2, [sp, #24]	@ _25, p
	cmp	r3, r2	@ _24, _25
.LVL129:
.LBB20:
	itt	gt
	strgt	r2, [sp, #4]	@ _25, p
	strgt	r3, [sp, #24]	@ _24, p
.LBE20:
	ldr	r2, [sp, #16]	@ _29, p
	ldr	r3, [sp, #4]	@ _28, p
.LVL130:
	cmp	r3, r2	@ _28, _29
.LVL131:
.LBB21:
	itt	gt
	strgt	r3, [sp, #16]	@ _28, p
	strgt	r2, [sp, #4]	@ _29, p
.LBE21:
	ldr	r3, [sp, #8]	@ _32, p
.LVL132:
	ldr	r2, [sp, #28]	@ _33, p
	cmp	r3, r2	@ _32, _33
.LVL133:
.LBB22:
	itt	gt
	strgt	r3, [sp, #28]	@ _32, p
	strgt	r2, [sp, #8]	@ _33, p
.LBE22:
	.loc 1 263 0
	ldr	r3, [sp, #12]	@ _36, p
.LVL134:
	ldr	r2, [sp, #20]	@ _37, p
	cmp	r3, r2	@ _36, _37
.LVL135:
.LBB23:
	itt	gt
	strgt	r2, [sp, #12]	@ _37, p
	strgt	r3, [sp, #20]	@ _36, p
.LBE23:
	ldr	r2, [sp, #8]	@ p, p
	ldr	r3, [sp, #4]	@ _40, p
.LVL136:
	cmp	r3, r2	@ _40, p
.LVL137:
.LBB24:
	it	gt
	strgt	r3, [sp, #8]	@ _40, p
.LBE24:
	ldr	r2, [sp, #24]	@ _44, p
	ldr	r3, [sp, #16]	@ _43, p
.LVL138:
	cmp	r3, r2	@ _43, _44
.LVL139:
.LBB25:
	itt	gt
	strgt	r2, [sp, #16]	@ _44, p
	strgt	r3, [sp, #24]	@ _43, p
.LBE25:
	.loc 1 264 0
	ldr	r2, [sp, #28]	@ _48, p
	ldr	r3, [sp, #12]	@ _47, p
.LVL140:
	cmp	r3, r2	@ _47, _48
.LVL141:
.LBB26:
	itt	gt
	strgt	r2, [sp, #12]	@ _48, p
	strgt	r3, [sp, #28]	@ _47, p
.LBE26:
	ldr	r2, [sp, #16]	@ p, p
	ldr	r3, [sp, #12]	@ _51, p
.LVL142:
	cmp	r3, r2	@ _51, p
.LVL143:
.LBB27:
	it	gt
	strgt	r3, [sp, #16]	@ _51, p
.LBE27:
	ldr	r2, [sp, #16]	@ p, p
	ldr	r3, [sp, #28]	@ _55, p
.LVL144:
	cmp	r2, r3	@ p, _55
.LVL145:
.LBB28:
	it	gt
	strgt	r3, [sp, #16]	@ _55, p
.LBE28:
	.loc 1 265 0
	ldr	r2, [sp, #20]	@ p, p
.LVL146:
	ldr	r3, [sp, #24]	@ _58, p
	cmp	r2, r3	@ p, _58
.LVL147:
.LBB29:
	it	gt
	strgt	r3, [sp, #20]	@ _58, p
.LBE29:
	ldr	r2, [sp, #20]	@ _61, p
.LVL148:
	ldr	r3, [sp, #8]	@ _60, p
	cmp	r3, r2	@ _60, _61
.LVL149:
.LBB30:
	itt	gt
	strgt	r2, [sp, #8]	@ _61, p
	strgt	r3, [sp, #20]	@ _60, p
.LBE30:
	ldr	r2, [sp, #16]	@ p, p
	ldr	r3, [sp, #8]	@ _64, p
.LVL150:
	cmp	r3, r2	@ _64, p
.LVL151:
.LBB31:
	it	gt
	strgt	r3, [sp, #16]	@ _64, p
.LBE31:
	.loc 1 266 0
	ldr	r2, [sp, #16]	@ p, p
	ldr	r3, [sp, #20]	@ _68, p
.LVL152:
	cmp	r2, r3	@ p, _68
.LVL153:
.LBB32:
	it	gt
	strgt	r3, [sp, #16]	@ _68, p
.LBE32:
	.loc 1 268 0
	ldr	r0, [sp, #16]	@, p
.LVL154:
	add	sp, sp, #32	@,,
	.cfi_def_cfa_offset 0
.LVL155:
	@ sp needed	@
	bx	lr	@
	.cfi_endproc
.LFE18:
	.size	quickMedianFilter7, .-quickMedianFilter7
	.section	.text.quickMedianFilter9,"ax",%progbits
	.align	1
	.global	quickMedianFilter9
	.syntax unified
	.thumb
	.thumb_func
	.fpu fpv4-sp-d16
	.type	quickMedianFilter9, %function
quickMedianFilter9:
.LFB19:
	.loc 1 271 0
	.cfi_startproc
	@ args = 0, pretend = 0, frame = 40
	@ frame_needed = 0, uses_anonymous_args = 0
	@ link register save eliminated.
.LVL156:
	sub	sp, sp, #40	@,,
	.cfi_def_cfa_offset 40
.LBB33:
	.loc 1 273 0
	movs	r3, #0	@ i,
	add	r2, sp, #4	@ tmp153,,
.LVL157:
.L100:
	.loc 1 273 0 is_stmt 0 discriminator 3
	ldr	r1, [r0, r3, lsl #2]	@ MEM[base: v_25(D), index: _2, step: 4, offset: 0B], MEM[base: v_25(D), index: _2, step: 4, offset: 0B]
	str	r1, [r2, r3, lsl #2]	@ MEM[base: v_25(D), index: _2, step: 4, offset: 0B], MEM[symbol: p, index: _2, step: 4, offset: 0B]
	adds	r3, r3, #1	@ i, i,
.LVL158:
	cmp	r3, #9	@ i,
	bne	.L100	@,
.LBE33:
	.loc 1 275 0 is_stmt 1
	ldr	r3, [sp, #8]	@ _30, p
.LVL159:
	ldr	r2, [sp, #12]	@ _31, p
	cmp	r3, r2	@ _30, _31
.LVL160:
.LBB34:
	itt	gt
	strgt	r2, [sp, #8]	@ _31, p
	strgt	r3, [sp, #12]	@ _30, p
.LBE34:
	ldr	r2, [sp, #24]	@ _35, p
	ldr	r3, [sp, #20]	@ _34, p
.LVL161:
	cmp	r3, r2	@ _34, _35
.LVL162:
.LBB35:
	itt	gt
	strgt	r2, [sp, #20]	@ _35, p
	strgt	r3, [sp, #24]	@ _34, p
.LBE35:
	ldr	r2, [sp, #36]	@ _39, p
	ldr	r3, [sp, #32]	@ _38, p
.LVL163:
	cmp	r3, r2	@ _38, _39
.LVL164:
.LBB36:
	itt	gt
	strgt	r2, [sp, #32]	@ _39, p
	strgt	r3, [sp, #36]	@ _38, p
.LBE36:
	.loc 1 276 0
	ldr	r2, [sp, #8]	@ _43, p
	ldr	r3, [sp, #4]	@ _42, p
.LVL165:
	cmp	r3, r2	@ _42, _43
.LVL166:
.LBB37:
	itt	gt
	strgt	r3, [sp, #8]	@ _42, p
	strgt	r2, [sp, #4]	@ _43, p
.LBE37:
	ldr	r3, [sp, #16]	@ _46, p
.LVL167:
	ldr	r2, [sp, #20]	@ _47, p
	cmp	r3, r2	@ _46, _47
.LVL168:
.LBB38:
	itt	gt
	strgt	r3, [sp, #20]	@ _46, p
	strgt	r2, [sp, #16]	@ _47, p
.LBE38:
	ldr	r3, [sp, #28]	@ _50, p
.LVL169:
	ldr	r2, [sp, #32]	@ _51, p
	cmp	r3, r2	@ _50, _51
.LVL170:
.LBB39:
	itt	gt
	strgt	r2, [sp, #28]	@ _51, p
	strgt	r3, [sp, #32]	@ _50, p
.LBE39:
	.loc 1 277 0
	ldr	r2, [sp, #12]	@ _55, p
	ldr	r3, [sp, #8]	@ _54, p
.LVL171:
	cmp	r3, r2	@ _54, _55
.LVL172:
.LBB40:
	itt	gt
	strgt	r2, [sp, #8]	@ _55, p
	strgt	r3, [sp, #12]	@ _54, p
.LBE40:
	ldr	r2, [sp, #24]	@ _59, p
	ldr	r3, [sp, #20]	@ _58, p
.LVL173:
	cmp	r3, r2	@ _58, _59
.LVL174:
.LBB41:
	itt	gt
	strgt	r2, [sp, #20]	@ _59, p
	strgt	r3, [sp, #24]	@ _58, p
.LBE41:
	ldr	r3, [sp, #32]	@ _62, p
.LVL175:
	ldr	r2, [sp, #36]	@ _63, p
	cmp	r3, r2	@ _62, _63
.LVL176:
.LBB42:
	itt	gt
	strgt	r2, [sp, #32]	@ _63, p
	strgt	r3, [sp, #36]	@ _62, p
.LBE42:
	.loc 1 278 0
	ldr	r2, [sp, #16]	@ p, p
	ldr	r3, [sp, #4]	@ _66, p
.LVL177:
	cmp	r3, r2	@ _66, p
.LVL178:
.LBB43:
	it	gt
	strgt	r3, [sp, #16]	@ _66, p
.LBE43:
	ldr	r2, [sp, #24]	@ p, p
	ldr	r3, [sp, #36]	@ _70, p
.LVL179:
	cmp	r2, r3	@ p, _70
.LVL180:
.LBB44:
	it	gt
	strgt	r3, [sp, #24]	@ _70, p
.LBE44:
	ldr	r2, [sp, #32]	@ _73, p
.LVL181:
	ldr	r3, [sp, #20]	@ _72, p
	cmp	r3, r2	@ _72, _73
.LVL182:
.LBB45:
	itt	gt
	strgt	r2, [sp, #20]	@ _73, p
	strgt	r3, [sp, #32]	@ _72, p
.LBE45:
	.loc 1 279 0
	ldr	r2, [sp, #28]	@ p, p
	ldr	r3, [sp, #16]	@ _76, p
.LVL183:
	cmp	r3, r2	@ _76, p
.LVL184:
.LBB46:
	it	gt
	strgt	r3, [sp, #28]	@ _76, p
.LBE46:
	ldr	r2, [sp, #20]	@ p, p
	ldr	r3, [sp, #8]	@ _79, p
.LVL185:
	cmp	r3, r2	@ _79, p
.LVL186:
.LBB47:
	it	gt
	strgt	r3, [sp, #20]	@ _79, p
.LBE47:
	ldr	r2, [sp, #12]	@ p, p
	ldr	r3, [sp, #24]	@ _83, p
.LVL187:
	cmp	r2, r3	@ p, _83
.LVL188:
.LBB48:
	it	gt
	strgt	r3, [sp, #12]	@ _83, p
.LBE48:
	.loc 1 280 0
	ldr	r2, [sp, #20]	@ p, p
.LVL189:
	ldr	r3, [sp, #32]	@ _86, p
	cmp	r2, r3	@ p, _86
.LVL190:
.LBB49:
	it	gt
	strgt	r3, [sp, #20]	@ _86, p
.LBE49:
	ldr	r3, [sp, #20]	@ _88, p
	ldr	r2, [sp, #12]	@ _89, p
.LVL191:
	cmp	r3, r2	@ _88, _89
.LVL192:
.LBB50:
	itt	gt
	strgt	r2, [sp, #20]	@ _89, p
	strgt	r3, [sp, #12]	@ _88, p
.LBE50:
	ldr	r2, [sp, #20]	@ p, p
	ldr	r3, [sp, #28]	@ _92, p
.LVL193:
	cmp	r3, r2	@ _92, p
.LVL194:
.LBB51:
	it	gt
	strgt	r3, [sp, #20]	@ _92, p
.LBE51:
	.loc 1 281 0
	ldr	r3, [sp, #12]	@ _96, p
.LVL195:
	ldr	r2, [sp, #20]	@ p, p
	cmp	r2, r3	@ p, _96
.LVL196:
.LBB52:
	it	gt
	strgt	r3, [sp, #20]	@ _96, p
.LBE52:
	.loc 1 283 0
	ldr	r0, [sp, #20]	@, p
.LVL197:
	add	sp, sp, #40	@,,
	.cfi_def_cfa_offset 0
.LVL198:
	@ sp needed	@
	bx	lr	@
	.cfi_endproc
.LFE19:
	.size	quickMedianFilter9, .-quickMedianFilter9
	.section	.text.arraySubInt32,"ax",%progbits
	.align	1
	.global	arraySubInt32
	.syntax unified
	.thumb
	.thumb_func
	.fpu fpv4-sp-d16
	.type	arraySubInt32, %function
arraySubInt32:
.LFB20:
	.loc 1 286 0
	.cfi_startproc
	@ args = 0, pretend = 0, frame = 0
	@ frame_needed = 0, uses_anonymous_args = 0
.LVL199:
	push	{r4, r5, r6, lr}	@
	.cfi_def_cfa_offset 16
	.cfi_offset 4, -16
	.cfi_offset 5, -12
	.cfi_offset 6, -8
	.cfi_offset 14, -4
.LBB53:
	.loc 1 287 0
	movs	r4, #0	@ i,
.LVL200:
.L122:
	.loc 1 287 0 is_stmt 0 discriminator 1
	cmp	r4, r3	@ i, count
	blt	.L123	@,
.LBE53:
	.loc 1 290 0 is_stmt 1
	pop	{r4, r5, r6, pc}	@
.LVL201:
.L123:
.LBB54:
	.loc 1 288 0 discriminator 3
	ldr	r5, [r1, r4, lsl #2]	@ MEM[base: array1_9(D), index: _18, step: 4, offset: 0B], MEM[base: array1_9(D), index: _18, step: 4, offset: 0B]
	ldr	r6, [r2, r4, lsl #2]	@ MEM[base: array2_12(D), index: _18, step: 4, offset: 0B], MEM[base: array2_12(D), index: _18, step: 4, offset: 0B]
	subs	r5, r5, r6	@ tmp119, MEM[base: array1_9(D), index: _18, step: 4, offset: 0B], MEM[base: array2_12(D), index: _18, step: 4, offset: 0B]
	str	r5, [r0, r4, lsl #2]	@ tmp119, MEM[base: dest_7(D), index: _18, step: 4, offset: 0B]
	.loc 1 287 0 discriminator 3
	adds	r4, r4, #1	@ i, i,
.LVL202:
	b	.L122	@
.LBE54:
	.cfi_endproc
.LFE20:
	.size	arraySubInt32, .-arraySubInt32
	.text
.Letext0:
	.file 2 "/usr/include/newlib/machine/_default_types.h"
	.file 3 "/usr/include/newlib/sys/_stdint.h"
	.file 4 "/usr/include/newlib/sys/lock.h"
	.file 5 "/usr/include/newlib/sys/_types.h"
	.file 6 "/usr/lib/gcc/arm-none-eabi/6.3.1/include/stddef.h"
	.file 7 "/usr/include/newlib/sys/reent.h"
	.file 8 "/usr/include/newlib/math.h"
	.file 9 "./src/main/common/maths.h"
	.file 10 "./src/main/common/axis.h"