	.cpu cortex-m4
	.eabi_attribute 27, 1	@ Tag_ABI_HardFP_use
	.eabi_attribute 28, 1	@ Tag_ABI_VFP_args
	.eabi_attribute 20, 1	@ Tag_ABI_FP_denormal
	.eabi_attribute 21, 1	@ Tag_ABI_FP_exceptions
	.eabi_attribute 23, 3	@ Tag_ABI_FP_number_model
	.eabi_attribute 24, 1	@ Tag_ABI_align8_needed
	.eabi_attribute 25, 1	@ Tag_ABI_align8_preserved
	.eabi_attribute 26, 1	@ Tag_ABI_enum_size
	.eabi_attribute 30, 4	@ Tag_ABI_optimization_goals
	.eabi_attribute 34, 1	@ Tag_CPU_unaligned_access
	.eabi_attribute 18, 4	@ Tag_ABI_PCS_wchar_t
	.file	"typeconversion.c"
@ GNU C99 (15:6.3.1+svn253039-1build1) version 6.3.1 20170620 (arm-none-eabi)
@	compiled by GNU C version 7.2.0, GMP version 6.1.2, MPFR version 4.0.1-rc1, MPC version 1.1.0, isl version 0.15
@ warning: MPFR header version 4.0.1-rc1 differs from library version 4.0.1.
@ GGC heuristics: --param ggc-min-expand=100 --param ggc-min-heapsize=131072
@ options passed:  -fpreprocessed
@ obj/main/SPRACINGF3/common/typeconversion.i -mthumb -mcpu=cortex-m4
@ -mfloat-abi=hard -mfpu=fpv4-sp-d16
@ -auxbase-strip obj/main/SPRACINGF3/common/typeconversion.o -ggdb3 -Os
@ -Wall -Wextra -Wunsafe-loop-optimizations -Wdouble-promotion -Wundef
@ -std=gnu99 -fsingle-precision-constant -flto -fuse-linker-plugin
@ -ffunction-sections -fdata-sections -fverbose-asm -ffat-lto-objects
@ options enabled:  -faggressive-loop-optimizations -falign-jumps
@ -falign-labels -falign-loops -fauto-inc-dec -fbranch-count-reg
@ -fcaller-saves -fchkp-check-incomplete-type -fchkp-check-read
@ -fchkp-check-write -fchkp-instrument-calls -fchkp-narrow-bounds
@ -fchkp-optimize -fchkp-store-bounds -fchkp-use-static-bounds
@ -fchkp-use-static-const-bounds -fchkp-use-wrappers
@ -fcombine-stack-adjustments -fcommon -fcompare-elim -fcprop-registers
@ -fcrossjumping -fcse-follow-jumps -fdata-sections -fdefer-pop
@ -fdelete-null-pointer-checks -fdevirtualize -fdevirtualize-speculatively
@ -fdwarf2-cfi-asm -fearly-inlining -feliminate-unused-debug-types
@ -fexpensive-optimizations -fforward-propagate -ffunction-cse
@ -ffunction-sections -fgcse -fgcse-lm -fgnu-runtime -fgnu-unique
@ -fguess-branch-probability -fhoist-adjacent-loads -fident -fif-conversion
@ -fif-conversion2 -findirect-inlining -finline -finline-atomics
@ -finline-functions -finline-functions-called-once
@ -finline-small-functions -fipa-cp -fipa-cp-alignment -fipa-icf
@ -fipa-icf-functions -fipa-icf-variables -fipa-profile -fipa-pure-const
@ -fipa-ra -fipa-reference -fipa-sra -fira-hoist-pressure
@ -fira-share-save-slots -fira-share-spill-slots
@ -fisolate-erroneous-paths-dereference -fivopts -fkeep-static-consts
@ -fleading-underscore -flifetime-dse -flra-remat -flto-odr-type-merging
@ -fmath-errno -fmerge-constants -fmerge-debug-strings
@ -fmove-loop-invariants -fomit-frame-pointer -foptimize-sibling-calls
@ -fpartial-inlining -fpeephole -fpeephole2 -fplt -fprefetch-loop-arrays
@ -freg-struct-return -freorder-blocks -freorder-functions
@ -frerun-cse-after-loop -fsched-critical-path-heuristic
@ -fsched-dep-count-heuristic -fsched-group-heuristic -fsched-interblock
@ -fsched-last-insn-heuristic -fsched-pressure -fsched-rank-heuristic
@ -fsched-spec -fsched-spec-insn-heuristic -fsched-stalled-insns-dep
@ -fschedule-insns2 -fsection-anchors -fsemantic-interposition
@ -fshow-column -fsigned-zeros -fsingle-precision-constant
@ -fsplit-ivs-in-unroller -fsplit-wide-types -fssa-backprop -fssa-phiopt
@ -fstdarg-opt -fstrict-aliasing -fstrict-overflow
@ -fstrict-volatile-bitfields -fsync-libcalls -fthread-jumps
@ -ftoplevel-reorder -ftrapping-math -ftree-bit-ccp -ftree-builtin-call-dce
@ -ftree-ccp -ftree-ch -ftree-coalesce-vars -ftree-copy-prop -ftree-cselim
@ -ftree-dce -ftree-dominator-opts -ftree-dse -ftree-forwprop -ftree-fre
@ -ftree-loop-if-convert -ftree-loop-im -ftree-loop-ivcanon
@ -ftree-loop-optimize -ftree-parallelize-loops= -ftree-phiprop -ftree-pre
@ -ftree-pta -ftree-reassoc -ftree-scev-cprop -ftree-sink -ftree-slsr
@ -ftree-sra -ftree-switch-conversion -ftree-tail-merge -ftree-ter
@ -ftree-vrp -funit-at-a-time -fvar-tracking -fvar-tracking-assignments
@ -fverbose-asm -fzero-initialized-in-bss -masm-syntax-unified
@ -mlittle-endian -mpic-data-is-text-relative -msched-prolog -mthumb
@ -munaligned-access -mvectorize-with-neon-quad

	.text
.Ltext0:
	.section	.gnu.lto_.profile.6afddecd56022411,"",%progbits
	.ascii	"x\234ce`b`c```d\230\307\322\307\004\000\004P\001A"
	.text
	.section	.gnu.lto_.icf.6afddecd56022411,"",%progbits
	.ascii	"x\234ce`bpf@\000n\206\356I;n31\336\373\363G\232\351"
	.ascii	"\367\201\226W\374\314{o\237\371\301\306\002f\263\202"
	.ascii	"\331l\353\272/-`d\357n\374=\205\217\243i\353\305\213"
	.ascii	"\334\234\227&\236\371\307\316u\352\374\255w\354\014"
	.ascii	"\000\230#\"9"
	.text
	.section	.gnu.lto_.jmpfuncs.6afddecd56022411,"",%progbits
	.ascii	"x\234eP1r\302@\014\324J\207qH&\241\244p\201\333\024"
	.ascii	"\014\257\340OT\242J\027&\035\0240.(\000\247\3117\350"
	.ascii	"xI&\037\360\014\322\035\214M\270\342n\265\253\225N\352"
	.ascii	"\021\323\006DB\351<\223\000\350\253jf\021\317\001\277"
	.ascii	"\331\260\321P\016\376\274\231\254\302\200\250\346.\255"
	.ascii	"\004\315\337\271yYJ%\204\001\366(\334\360^\304\232\241"
	.ascii	"5\365:\246\177YY\254\317s\307\375\326\341\255\363\307"
	.ascii	"?\271\301\203\031\246E\012\237R\351`z\032\345\212\342"
	.ascii	"\347~\267\237\241D\265X\217+\001\031\363u>\325\257\332"
	.ascii	",F\225\315q@iyG\250\025\275\331\021\374\346\010\302"
	.ascii	"5\214\020\310\315\277\3739|\210\217+\230\242F\321\352"
	.ascii	"\214\334\211\341=+\035v\324\225R\207\354\326\363n\225"
	.ascii	"\301V\371\355K\032\370n\210't\001\336L9\263"
	.text
	.section	.gnu.lto_.inline.6afddecd56022411,"",%progbits
	.ascii	"x\234\245R=K\003A\020}3\273w\267\371\344\324\"\202\011"
	.ascii	"\271\326\020\362\017\004\013\353t\376\005\361\243\362"
	.ascii	"\037\330i\025\016,,,\022,4\205`c\241H\020T\260Q\020"
	.ascii	"\033\033\013\301FP4\2456\301\235\333\\D\301B\234\203"
	.ascii	"\231a\357\315\2747\263\353\201\321c\214,\007\024\253"
	.ascii	"\304\210\010`qJw\252\360;U\206y\270\343\274`\274\242"
	.ascii	"=\216\233\362\021\002\237\010F\200\366\217\303\365g"
	.ascii	"\264\300\030S'\232\024G+T+\333f\313.\010\264\336\352"
	.ascii	"\3169\260\356nR(h\205\302\004iD\013[\212\016^\216?\012"
	.ascii	"-\325V\036\201\366\250\014DK\303h\253I\\\220\262Yy!"
	.ascii	"\370\336\013\265\370H\203^Ys\342S\255:n\002qS\377I\217"
	.ascii	"\227\352\021\224\360\327\376I\357\243\230\377\271\252"
	.ascii	"pg>\201)\273W\212\233\001\306\036\311\232eP\320\343"
	.ascii	"\027\327Y\273\314\206\355\366\024h\347\035\230\004l"
	.ascii	"P*\221\367]`2\315\227\312L\312\343\367\033\241H\215"
	.ascii	"\3007y\003:%\333O\365\264\025=\340(\361\263\251^\223"
	.ascii	"\336\255\315u\232g&\317\360\006y\027\213\366~\366\317"
	.ascii	"\007\357T\331^3R\322V>\250K\025\307\253\353G\3174\034"
	.ascii	"\356j\325\200\017sf4\"K\253a\002]H^\021\334\0119\000"
	.ascii	"~\0174\252@\026\227\270e\002o\320\356\372\264c\023\373"
	.ascii	"\004\332l`\213"
	.text
	.section	.gnu.lto_.pureconst.6afddecd56022411,"",%progbits
	.ascii	"x\234ce`b\020g``\340f\220bd`\222b\226b\221b\225bc`\227"
	.ascii	"\342\220\342\224\3422\005\000\017\243\001f"
	.text
	.section	.gnu.lto__i2a.6afddecd56022411,"",%progbits
	.ascii	"x\234mR[HTQ\024\335\373\35633\216:\372\023\021$\246"
	.ascii	"\3640\373p\264\354\365\331\373\375\266\347\237\015B"
	.ascii	"B\316\204F\324\327\034\315\246\262(A\3232o\327\036\322"
	.ascii	"\313i\324\312\322\300,\003\261\267~\004!A\230\006\222"
	.ascii	"\022\321\013\003\255}\316\235\217\210>\356\334{\326"
	.ascii	"]k\257\265\327\035\007\030\360\316\000\310\001\200l"
	.ascii	"\276\320\001h\224\277\004(\2161\014jK\006\031+\336x"
	.ascii	"A\306\023\012\033\026\210\352A\306 \004\015\022\030"
	.ascii	"\304\323TM\330S\332XK\247\310\"@\301\307//j>$\250#b"
	.ascii	"\012\037\317\313\336\343\256\364\253R\226\310\216\352"
	.ascii	"_\256\013\315\257\245\333\"\003\3161\375\032&\341UL"
	.ascii	"R\346\3271\235\311\365\317:\333\023h\006\002?W}\355"
	.ascii	"*5\322\352\265p\240\202\3444\213\010o \375-d\010\360"
	.ascii	"&\2461\375\375\311\226\260\207fj\351\210\371\340\236"
	.ascii	"\210J\207+\265\324\300\206\177\245\006`XK\213\257|{"
	.ascii	"\344\240YZZ1\376\271\337\025\225>\257\212\272\336\372"
	.ascii	"\217k\004\323\024\277\277i\374\214\307)\324:\274E#:"
	.ascii	"\221\357\221^\354\220\343\277\217\312\216\037S.\206"
	.ascii	"'$\240v\342B8*\227\310R\207\032\342D\005\273\365\313"
	.ascii	"X\005\304\361\217\360\350hP\306\003U\333'\370\300w\032"
	.ascii	"\302\303\215\241\261\207{\225\207I\016\223\310$\001"
	.ascii	"\003X\332\327\371\004\243 \347\211\014\267\216zT\373"
	.ascii	"\304\246M\272[5\203\240-\231>a\250\356r\345d\233\354"
	.ascii	"frk\353p\237+8&c,r\330\0134c\020\364tf\010\213\2340"
	.ascii	"\210%)z-\316\310\"=L\350@\203h\027h\262\023\207\273"
	.ascii	"\0372{\032\310\236\035\033M7\204%\355\335{l,\216\375"
	.ascii	"*\313F\207\022S\275\226<\233b\221K\325\027\351\374X"
	.ascii	"\235\230\025\221\345R2$\3606\246\262\\e\306;\230\245"
	.ascii	"\006TuOR\003\324\037\342\310\343W.\265\232\241\277\324"
	.ascii	"\317\256\247\307\342-4\213\245\224u\023Y\314A\360\256"
	.ascii	"\332\030[\220qn\223c\325\206\302=\007\355\004\036E\310"
	.ascii	"L\202\221\350J\214\260\317wd\252\323\340\255\335Ts\351"
	.ascii	"-r\361\250\366\343O05\303[T\350\363\026\344\346\373"
	.ascii	"\275\276@AA\300\357\335\177h_\236/\340?\220WX\224\037"
	.ascii	"\360g\370\000\3631W\354\316-\312\233\236\2315{N\366"
	.ascii	"\334y\363\027,\\\264x\311\322e\313W\254\\\265z\315\332"
	.ascii	"u\3537l\334\264yK\316\326m\333w\354\334\005\177\000"
	.ascii	"\273\340\370\335"
	.text
	.section	.gnu.lto_a2d.part.0.6afddecd56022411,"",%progbits
	.ascii	"x\2345PKK[a\020\235\363\315w\257\022b\301\375]\024\204"
	.ascii	"\246Y4\021\\w\257?C.B]$)\261\024\272\312W\037\025\014"
	.ascii	"U\027>04d%V\343\033\304eC\335\024J[\032*\005W\276\272"
	.ascii	"\360\011\026\245\264\320\350\314%^\370\346q8sf\316\365"
	.ascii	"\310P\005D\217\211\350\251<\370\004o\362\253\024\036"
	.ascii	"L\224\215a\367\231\310\305\354$\223\2133\254\302\257"
	.ascii	"[-\240\205k\005\025<\303\026\005L\360,\343\373\360\372"
	.ascii	";\036\347\012\023\254\264W_JG\017\264\005\036J\273;"
	.ascii	"\265Z\215'\027\234|\265\331\272?=4\322]aCs\302~\217"
	.ascii	"\000\013\010\364\210E$\205\373\363\372\317\307\030?"
	.ascii	"\002I\275\365k\347\207\227\230wn\320\325\256\257\214"
	.ascii	"\213W\230\261\004\326\301\256\000\235\001\011@\250\""
	.ascii	"\241\354\303\215\306t\233oUV\324\226\341\213CZ\253\303"
	.ascii	"\271\306\355\250s\377R\355-\200\222\215\216\261\004"
	.ascii	"c5x\032\210\306dL\275\215\261\247\231\213\002j>\301"
	.ascii	"\320\314\233\377[\373P\3112\2332C\226\025\377n\356\266"
	.ascii	"\251C\306\007`E\034\034c\370\333\316\371=K(\215\263"
	.ascii	"\203\263&\305\303j\344\221\250(\213\345\317\212\352"
	.ascii	"\340\357\321\267\333\307M>\213*E\233\232\200\025L4\346"
	.ascii	"O\347\252\276j\030\364`-\322(\262\215\356\272\200\241"
	.ascii	"\262\334Jt#\372O\002\263wY\223\343,\227.?\261\270\200"
	.ascii	"\262\304WG*=\220\017\323\231\336\376l:\314e2\271l\372"
	.ascii	"\305\253\347}a.\373\262/?\320\237\313\246B2\341\263"
	.ascii	";O\036\222T"
	.text
	.section	.gnu.lto_uli2a.6afddecd56022411,"",%progbits
	.ascii	"x\234mT\353O\024W\024\277\347\236\231\235\335\331\231"
	.ascii	"\005\005\021a\215PK\211\332\2101i\214I\2774\375\334"
	.ascii	"?B\3216~`i|%\375\344H\351\242\210JB\205\272q\202\211"
	.ascii	"\265\242\326\202\255/\350k\227\265*\255\017\024\252"
	.ascii	"\210-M,>HkL-\304hZ\332s\356\235\005\244\335d\347\316"
	.ascii	"\371\235\363;\357;\246\220\342UK\210\327\205\020\375"
	.ascii	"\364\207|\001\262\371\252\020\333\303\022\014\375\202"
	.ascii	"\372%\0236$6]\024\302\263\315zKx\216\0111\306!$#;*\011"
	.ascii	"\265\370\351X2R\277\232\244p\323<\222\302\201\316U\272"
	.ascii	"\210\264\225\344(\311\226\352\264\243J\212\202\243\303"
	.ascii	"9\340\352\027W\373\177#&C:l\236\012\233\007\300\260"
	.ascii	"\027\006\261M\242a\206\254p\304\216:n,\017\266\241!"
	.ascii	"\364/\026\234{\261\015\241\267\341~\267\\r\304\243_"
	.ascii	"\272\355I\261\327\221\206v\024b?j\0338\002K\310\352"
	.ascii	"z}\327\001\334\203\355\010`\220\370\307\225\324\257"
	.ascii	"1\026%\224\2218\322q\251\331\306W@\320\373@_\177\306"
	.ascii	"\251<\354yu^z\274\005\275\227\333\021\341\030 9\204"
	.ascii	"\243\020\207\016\210\013\202\004\034\207J2\337\376\361"
	.ascii	"x\306\304\245\212\3322\371\370\256\025P\317\267*\252"
	.ascii	"\001\237\316\246\032\002N(\352\323\276\241\217\014\254"
	.ascii	"R\324\336\246\263o1\223\212\030lSL\023>\233\3154\005"
	.ascii	"t*f\363\301K\031\211+\025\363z\343\263\337 \010:Z\274"
	.ascii	"\337K\033\355\030\202\256\331\334\220\200\223P\311\204"
	.ascii	"\207\267\216v\233\370\232\"?\355\037\355\261+\016)\362"
	.ascii	"\375C&\261\353\3138\351\317_\244\363\217\254\377\366"
	.ascii	">l\215\341*\305<\342\335\033\310c&e<\322\202\001\323"
	.ascii	"\204S\377\313\274{rr\237\0332\3404T\300\027P\241\247"
	.ascii	"\003g \004B`\016%\273\354\316\246\024\342j\025\241\316"
	.ascii	"\333}\323\011\"\\\030\234\216p\366\277\021\340\034T"
	.ascii	"t\336\200\2647\371O\203\227\276Yp\254\350%P\003\222"
	.ascii	"\252j\262\246\020\324w\012b\252g\210:bY\312$\242\224"
	.ascii	"\266\202\243\300\210\303\363u\201\247\024\003\346\347"
	.ascii	"+\345\034\206\347\252X\005\212Y\250\340\"\025b>\360"
	.ascii	"h\212\025\276@!%\352Y\252\274\363\000\254\205\374X\244"
	.ascii	"\344r\305\024\242\221\332@k\277\013%\035x\017\352\016"
	.ascii	">\356\003\325\026n\311\322\270`\350\317\353RA\272C\247"
	.ascii	"\316_L\206ys\015\000\350V\365\357\242m\244;\204c\360"
	.ascii	"~*\371\350A\210\255}\314\367\321\360\321e\027e9>\241"
	.ascii	"\312\336\020t\311(\236\024\0325\004q\273\222?7\330\232"
	.ascii	"\353\370\030et\024\352og\177\202)\320\345fO\200\301"
	.ascii	"\201ej\357<\362\207\303\327\\\362hR\001@\252bb\032t"
	.ascii	".\3601\306g)Ua<\277\352L@9948x(\227lWr\367Xt\306rPc"
	.ascii	"\325N\320<{8\340\034\037\301'\317cP\367\244\3416jp."
	.ascii	"\341\272&\022\231B\020g\177.\271/\242-\012\002\332\224"
	.ascii	"\021\215\204P]\342\211\261\220\266*$\223\251\366\364"
	.ascii	"\344\332S\310%\337\311\216\234\017\242!\017A\250\236"
	.ascii	"Y\342\302b$\355P\366/\010R\231V\206\305\345\010+\207"
	.ascii	"\263\203\001\263\220\012\353\374\275\373\231\253g%\340"
	.ascii	"K\310\031G\304'\275\252\001\007\222Wv\332\332\274\310"
	.ascii	"\247O\321\212\370t:'9\351\"\241\002^\316\325N>\217\237"
	.ascii	"9\334\003\354\323\204\010|5\345\323\026-\345\234\300"
	.ascii	"\2357\265\351\374\\n\215\030\025}\371\270\013\235 *"
	.ascii	"\3652\310?\316\255\2444Z\223\001\260\320G\206\271\341"
	.ascii	"\255}\313\030\243\200\255\037\364^\2638`H\1771.~\277"
	.ascii	"\303i\007\177;]\313\203[y\2459\363\2579\021\370\006"
	.ascii	"H\201\013\265\317\037\203q,\342..\233Q\331in\364\"\336"
	.ascii	"#v\377\303\335\275I\311\356-\270%\340[\210GS\003q\302"
	.ascii	"\017uu$Q\343+ \015\361\210$\360\273_2{\242\032\\\005"
	.ascii	"\031\210\333\222Jw\325>\221;\312\244\300\351\271\021"
	.ascii	"\243#,'\240\204\372\347\244Zh\3202L\332\010\005uz\006"
	.ascii	"H\213,\3324\"g\370\206KG\230\275\304\370J\300\364\225"
	.ascii	"\340\375\221B'\213\372]\215D\352w\265S\240\267\3459"
	.ascii	"\352\013b\346f<\001\324\206bS\370h\271$H\037\027\260"
	.ascii	"P\302\002\372X\312B\204\005\332\300r\026l\227g\230\307"
	.ascii	"\037\001\352\375\370\303\241\225\354qv\267\213^hv/5"
	.ascii	"{\346x\350\372A\2264\217\350\223\361\300\326\367H\315"
	.ascii	"\037\310\255\024b\361\362\252M\033\253\253j\326lHTU"
	.ascii	"\327\326\324\324&\2526\277\367\356\372\352\332\304\326"
	.ascii	"\365\0337m\250M,\257\026\230\330Rc\254]\263i\275\334"
	.ascii	"R-\327\276\015\353 \201\353\336\331\374/\020\356&\353"
	.text
	.section	.gnu.lto_li2a.6afddecd56022411,"",%progbits
	.ascii	"x\234]RAk\023Q\020\236\357\315&\273\306\264\236<(\001"
	.ascii	"\013\212\241E\033\005\377\220\206\026zH\"\255\012\236"
	.ascii	"\262\215m#\011\324`\321\020i\330\\\244\321\030\323\252"
	.ascii	"(9\031\253`(\264\032\021\024\025\017j\213\245\255h\261"
	.ascii	"H\013\251\316{\021\004\007\036;3\357\233o\276\231\267"
	.ascii	">R4\245\210\216\021\321)9\360\021Tn\211h\324Q\212[!"
	.ascii	"r\003\326\343\223\344\006\031V'm\001\332q\035PR\261"
	.ascii	"\205$\256p\2361\237^\251\253\336\031W\254\221\177x\300"
	.ascii	"-7\3401QA\2166\314\240WP\255\261\331i\236d\217\001K"
	.ascii	"\302\037\2137>w\353P\241G\302\217\345f.\300GA\342\357"
	.ascii	"<Z\334\334\027\276i\370\236]e\367\210\307\214\333`!"
	.ascii	"\304-\204PF\210$E\250 ,\360\\\251\371Dq\237)me\266\327"
	.ascii	"\240KSn\343\303\224)\265p\347\377R\213PEX\343?\315\355"
	.ascii	"^\353\362[\035\255\270\013?\344[{\205\206\273\373;\355"
	.ascii	"6V\366/\034\014\3024R\246F6 \276\017\332\267M\3361\371"
	.ascii	"\200\260\372\2102B\2437\224e\245\277\374\005cKO\277"
	.ascii	"\215\263f.\262\036\273\266^\337\356\322c\263\320\326"
	.ascii	"D\215\266\254\014\323\012\361*Ro'6*v\007mK\001-#\325"
	.ascii	"cdI'I\321*.MO\264\263\177!N\221}8\021\372\207\252j\224"
	.ascii	"#\250\324\317\346!\235\221\216\327\307\347_\330\272"
	.ascii	"\243e6\364\353\371\302\345\240\207\342\250l\2674(\262"
	.ascii	"\375\232dV+\301\034<\010\244\3605\363\332<\215\037\307"
	.ascii	"q\317h\314\212\026=\3202:{(\312\200\3067\272\240;n\246"
	.ascii	"\213Utt\005tj\015i#J7\255\327\327\337\333\311\266\353"
	.ascii	"xl\027\344\216p\037I\022\240\334\265\277\277l\007u7"
	.ascii	"\007\001<\2207\352\013\011\273\307{h\003\251Re\257\341"
	.ascii	"\020\333\002d#J\252l~\367\246{\013J\204\353\320\341"
	.ascii	"\235|\267\254\036Z\241\374\317\207\373##\303\321H\354"
	.ascii	"\364P<\022M\304b\211x\344\334\305\263\003\321D\374\302"
	.ascii	"\300\360\310P\"\336\037%\216\237\217\2513\203\177\000"
	.ascii	"WQ\325\031"
	.text
	.section	.gnu.lto_ui2a.6afddecd56022411,"",%progbits
	.ascii	"x\234mT\353OTW\020?s\346\336}\334\275wAE\004]\"\324"
	.ascii	"R\242&\242M\032k\322/M?\367\217P\244\215\037\200F\324"
	.ascii	"\244\237\274P\272ZA!\241\202\022o!\241\026\254\265@"
	.ascii	"\353\213U\333\005,\017\265\026\213)\276\252\311\012"
	.ascii	"-\246\017\323\006b4\225v\346\234\273\240\324M\366\236"
	.ascii	"3\277\231\337\314\234\2319\307\024Rl\010\012\361\206"
	.ascii	"\020b\224\376\220)@6\\\025\242*$\301\320\033\324\233"
	.ascii	"\276\220!\261nH\010\3272k\202\302\265M\2102\016\001"
	.ascii	"\031\336[Dh\220\277vP\206k6\221\024\252[JR\310\3279"
	.ascii	"J\027\226\226\222l%YR\255VDI\021\260u8\033\034\275q"
	.ascii	"\264\3777\2432\240\303f\250\260\031\000\014\273!\020"
	.ascii	"\273%\032f \030\012[\021\333\211f\300n4\204\376E\375"
	.ascii	"\265\036\233\021\372\367\374\322+Ww\270\364K6\337\311"
	.ascii	"u;\223\320\212B\034Fm\003\035\260\232\254\256\325t\037"
	.ascii	"\301\003\330\212\000\006\211\177}\337r?\312\242\204"
	.ascii	"|\022\357v\0167X\370\012\010\332\217\215\214\366\331"
	.ascii	"EG]\267\332M^lD\367\345VD\370\034\220\034\3021\210A"
	.ascii	"'\304\004A\002\216C\021\231W}:\335g\342\032Em\234}\230"
	.ascii	"\012\372\324\353\007}\352\027/\240\236P\324G#7\016\031"
	.ascii	"X\254\250\375ug\336f&\035b\242I1\015\370r!\323\020\320"
	.ascii	"\245\230\015m\303}\022_U\314k\373\036\377\006~\320\351"
	.ascii	"fE5\241{!\325\024\320\003El?5~\254\327\304\327\024\367"
	.ascii	"\321\350D\302*lW\334\253\035\346a7Y\223\3179\177\365"
	.ascii	"<\235\177d\375\324\375\270)\212\033\025\263\303\235"
	.ascii	"\034\313`&%<\330\214>\323\200\223/d\246zf\017:\001\003"
	.ascii	"NA!|\015\205\2729p\032\002 \004\246Q\262\033\370\250"
	.ascii	"\256\005q\223\212P\355\356\377\311\366#\3749>\037\341"
	.ascii	"\314\377#\300Y(\354\372\021\222\356\354\277{\334\344"
	.ascii	"l\366\245\222\227@\365G\252S\2235\205\240\342Q\020S"
	.ascii	"}\003T\221@P\231\204\225\322Rp\004\030\261\271G\016"
	.ascii	"p\223\242\300\374L\245\\\304\360b\025k\211bf)8[\205"
	.ascii	"X\006\334\231\034\205\347*d\271\372\256P\336\271\001"
	.ascii	"\201<\376\254Tr\201b\012\261\217\312@S_\213\222\026"
	.ascii	"\234\204\352\266\373\227A\225\205K\262&&\030\372uL*"
	.ascii	"HW\350\344\305\241x\210\007\227\006\031z\325\371ki\242"
	.ascii	"\350\012\341\003\370\240%~\341a\200\255=\314\364\320"
	.ascii	"\360\320a\027\371i>\241\312\336\020t\307(\236\024\032"
	.ascii	"5\004q\273\343'\352-\315\265=\2140:\00157\007\356\300"
	.ascii	"\034\350p\261g\300\340\3002\361\311R\362\207O\356:\344"
	.ascii	"\321\244\003\000\251r\210i\320\232\353a\224\327\025"
	.ascii	"t\012\243\345\256=\003\005\344\320\340\340\201t\262"
	.ascii	"\335\361\237\037F\236\031\016*\254\232\011\352g\202"
	.ascii	"\003.\362\020<\362\374\000\252\377\336s\0235\270\230"
	.ascii	"p}&\022\231B\020g\1776>\231\241-\226\370\2649#j\011"
	.ascii	"\241\372\210O\251<\312*\213L\346\312\223H\227'\213\217"
	.ascii	"|{`\360\320\353\332\012\271\011B\325,(\006W!io\014\374"
	.ascii	"\003~*\363\312\220\270\022f\345\255\201\353~\236Yt\260"
	.ascii	"\256\337{\037;\272W\002\316A\3328,>\353W\0058\022\367"
	.ascii	"z\332|g\331\036=E\353c\363\371\364p\326\331BE\274\222"
	.ascii	"><9=~\372h\002\330\251\001a8?\347\324\022\215\005\234"
	.ascii	"\301\355\267\264\351\262tr\3730\"F2\261\026m?,\025\323"
	.ascii	"\217\031\343ZR\036Mq\037\310\363\220a\256x\323\310Z"
	.ascii	"\306(`\323\207\375?\0049\240\251\237\214\241K{\355V"
	.ascii	"\360\252\350^\266\355\342\231\346\314/p\"\360\015\220"
	.ascii	"\002\363\264\317\243\033\264\323\225\\\306\265\317\234"
	.ascii	"\354\024Wz%\017\022\273\277\234\252\217Kv\037\200q\001"
	.ascii	"\337B,\222H\015\363\273\336\336\335\031G\255X\017I\210"
	.ascii	"\205%\201\337\335\353;\020\321\340F\350\203\230%\351"
	.ascii	"\354\216\232(\362\027\244>\333\267\356Ei\011\311\031"
	.ascii	"XN\005\264\023\251\244\244\014C\244\016SX\373Vj\212"
	.ascii	"rD\226-j\223\375\344\236CK\210\375D\371Z\300\374\265"
	.ascii	"\340\031\222B\347\213z\257\272\"\365^\315\025\350\211"
	.ascii	"I\005\365%1\323}\236\001\212\222c\012\017\203\016\011"
	.ascii	"\224B.\013\313Y@\017W\260\020f\201\246\260\200\005\313"
	.ascii	"\3416f\360C@\345\237\236\332\337\256.\362\302\212g?"
	.ascii	"W\360~*\370\263-\242\367\024\006H\363\007\275\033\347"
	.ascii	"\352@\337&5\004@\216\245\020\253\326\025Wn/).\333\274"
	.ascii	"\255\274\270\244\242\254\254\242\274x\307\373\357\225"
	.ascii	"\226T\224\357*\335^\271\255\242|]\211\300\362\235e\306"
	.ascii	"\226\315\225\245rg\211\334\362\016l\205r\334\372\356"
	.ascii	"\216\377\000\024V+\231"
	.text
	.section	.gnu.lto_i2a.6afddecd56022411,"",%progbits
	.ascii	"x\234]R\317k\023A\024~\337\274Mv\011Q/\036\024\026,"
	.ascii	"(\206\006m*\370\017ih\241\207$\245\255\202\247lc\233"
	.ascii	"H*6\"ZR\0326\036\244\365Gmj\016\222\203\030\353\301"
	.ascii	" 6\032\021\021\004\021\265\265\245\026\264\264\210\205"
	.ascii	"\264\276\231\034\004\007\206}\363\346{\337\373\3367"
	.ascii	"\033 E9Et\212\210\316\312F\200\240\012M\242QG)n\271"
	.ascii	"\344\205\254\247g\310\0133\254N\332\002t\3409\240\264"
	.ascii	"b\013iL\362\024c)\267ZS\335\263\236\254\372T%\230\365"
	.ascii	"\306\217\370LT\224\255\027f\321-\250\326Xe\206\257\261"
	.ascii	"\317\200%\307_\313\323_\017\352\243B\227\034?\3155\012"
	.ascii	"!>\011\222x\367\361\362\326\241\310\035\303\267}\235"
	.ascii	"\275\023>3\356\201\205\020w\341b\016.I\212p\037\021"
	.ascii	"\201\027\312\215g\212\243\246\264\225\377\263\001]\232"
	.ascii	"\361\352\257n\230R\013\017\376/\265\010\363\210h\374"
	.ascii	"\227\305\275\233\007\202VG+\036\"\010\371.\274E\335"
	.ascii	"\333\333\317y\365\346\321\333\355p\030\246\2232Eb\201"
	.ascii	"\304\001\350\3306y\307\344CB\033 \312\013\217\266h\202"
	.ascii	"\225\376\3627\2145\237\277/\366j\352\222H\211\272\306"
	.ascii	"\222\011Q\337ry\035\231\017\331'\325\221\316\255-\000"
	.ascii	"ZA\246\313\350\020fI\321:.\317d\227\253\203\035\210"
	.ascii	"S\342\000z\335\177\250y\215r\004\225\331n\034\323\031"
	.ascii	"\231\351\326\370\322k[;k\031K~\277xy%\354\2434*v\226"
	.ascii	"\373EfP\223,\210\021\204\012|\010\244\270\226\177g\336"
	.ascii	"\"\210\323X\3247\242\3202\003\254\2403wI\0062\261\321"
	.ascii	"\005\335q+\267Y=\334\321\025\322\251\015\344\214(\335"
	.ascii	"\264V\373\361\321N\267=\307g\273(w\204GH\223\000\345"
	.ascii	"\256\375\363M;\254\273\005\020BU\036%\352\012\273/c"
	.ascii	"l\"S\336\277\012C\"k\007\020K\224\224\331\274\273\272"
	.ascii	"\206\035(\221\256\317\016O\177\377\014q\033Z\244\374"
	.ascii	"\303\307{b\303C\361X\342\334@2\026O%\022\251dl\344\322"
	.ascii	"`_<\225\274\33074<\220J\366\304\211\223\027\022\352"
	.ascii	"|\377_}*\323\237"
	.text
	.section	.gnu.lto_a2d.6afddecd56022411,"",%progbits
	.ascii	"x\234]Q\317k\023Q\020\236\357\315\356\333\244&=x\022"
	.ascii	"\211E\020\254\275t\005\377\011\217\236\274K(\330C\022"
	.ascii	"iE\020\017\3316\325\242\005\215`[Z,\213\007\2515\265"
	.ascii	"?\224\\4b\260\202B\215\332\022\177 \024\324\326\203"
	.ascii	"\306\034Z\253\202`t\336n\322\203\013\373\346\315\307"
	.ascii	"7\337|\363\306&E\347\024\321!\":.?\"\004\225\177A4\020"
	.ascii	"Q\212K\035\344\265YU\227\274\030\303\011aK\331\001\254"
	.ascii	"\003\330n\301:\274\300\001L\364\"\240\254b\313\326\016"
	.ascii	"\262\270\302\343\214\225\241\205\353|\231}&X\222nV&"
	.ascii	"\327\333M\012\354\227\364\365\265\271B\254k\332\223"
	.ascii	"\257<\276\252Gs\347\217\372\254hB\330\267\220\3004\022"
	.ascii	"\306\335\014\272\204\373v\373\327\3436>\010\222{\361"
	.ascii	"\363R\325\356\274\351y\203^y{Sy1\237\031\267\301\246"
	.ascii	"\360H\002\207\023$\000\241\200N\303\376\264\330\030"
	.ascii	"\215k\313\310\212\332,4$\316\257\242\3545\376\016{\345"
	.ascii	"7{o\324\343\273 %J\301\324\260\251\266Ln\233C\233\324"
	.ascii	"1\267\2109\242\346 \272$bf\346\021I$\362\027\344\306"
	.ascii	".<,\316\3024\230b\236b%\255\277\226\326\237\007\343"
	.ascii	"3^\001wd\236\015\014\275\\z\322b\011e\254r\365\276\016"
	.ascii	")Q\314\005\023\033U\246R\207\210\016n\015WvD-\021\245"
	.ascii	"\240Q\023\260\005\023\211\302\317\374Z\360\252\012\307"
	.ascii	"0\037H\214\310\000U7t\265V\374\320\344\353\320U\371"
	.ascii	"\351\362@,l\351\003\013-W\337Z,\2414j\037k\361\220b"
	.ascii	"cq\307\225M\313\273CW\365\342F\223\356\374\357*\"\230"
	.ascii	"YR\376\301\212\025\272\232\311\342n\323\226\246\213"
	.ascii	"\373\270\006+\244F\205\227\373\375\350{{\366\217\267"
	.ascii	"\307gk\202e7\270\207,\211\250/\355L\211\023<p\035J@"
	.ascii	"\263\272\037\200\214\316\223\265wJ\232\331\357k\317"
	.ascii	"\344\265\243\332\354\004\206*\3339\320\355\366\367%"
	.ascii	"\335\324\211\336\264\233\314\244R\231\264{\372\354\251"
	.ascii	"\236d&}\246\247\257\2777\223\356N\222J\236\374\007\022"
	.ascii	"V\325\270"
	.text
	.section	.gnu.lto_a2i.6afddecd56022411,"",%progbits
	.ascii	"x\234mS]O\024g\024>\347=3\263\273\303\356\306paj\334"
	.ascii	"\013\022EB\023\305\324\013\275\351E\333\037\321k\273"
	.ascii	"%\312\005\013\0015\2517\014\260b\005\203\037-\030(\223"
	.ascii	"]\243-~\240\250\250\270~\264\313b\342\372Q\252\304\244"
	.ascii	"R\2431*\211D\211\250|DR\267=\357\231\335\212\324I&\363"
	.ascii	"\316\231\347y\316y\236\367\035\023\024\024\233\000_"
	.ascii	"\002\300\327|\243\017P\355\035\001h\364+4\275\005)+"
	.ascii	"C\340\330\306\310\015\000'hx\365!\277\251H*\266|\016"
	.ascii	"Z\210\272\356\370\021\032\024\031\246\205\015\212\225"
	.ascii	"\345\332C\007\010o\316ew\333\345\275\216\323\344\244"
	.ascii	"\017\314[\263M;>I\020@\027\001\256\213\340\332\210n"
	.ascii	"\337\213\345\214\374sz.c\323*\004^\237\033\037\276k"
	.ascii	"\226\375,\254\277_)'\310\034<\202\364\236\246E\360("
	.ascii	"\2261\370N\374T\017\265S\202\020\015~}\365{\367\223"
	.ascii	"\260~UX\302\257W\373\016\356\262\251\\d\307\334\216"
	.ascii	"\263\005\331\253?\222\2632A\204}\236\354q\214\3401\324"
	.ascii	"\302\374rB\204\033\017O\017\231\264Z\250\263\361\241"
	.ascii	"K~Mu\234\364\255\016\241\032xr1\325\000\354\027\352"
	.ascii	"\350\355\227\027\220>\023\352\356\336\235\315\205\256"
	.ascii	"O;\205j\342\251\305T\023\3604\226i\374\353\2013\307"
	.ascii	"\002\264^\270\003\231\307?\204K\017I\333\221\236\342"
	.ascii	"}\315N\3261t\3533\037\362\365\305\360\207G\262{m\372"
	.ascii	"\\\250\356\243\334\225\0025\023\351r\322\361\022M<\373"
	.ascii	"Q\342\255\364\256~\233\276\020bntb\312\324D\2367\367"
	.ascii	"S\361\376|O\013\317\177\224\372\370t\256#d\0318\210"
	.ascii	"\245x\216\357\001,\325\333\313\333s\001-\004\240\205"
	.ascii	"_\372G1\355\344\376\331\351\244g\227\037\234\014\027"
	.ascii	"\243l\242\002\215aiF\361\211\342\364}R\361\243\376\032"
	.ascii	"\000\315\264QG[\244C\016\0120$\220\260\010,A\011\017"
	.ascii	"Z\271\357\224\005m\244\370A\023\3304\337\372n\3600\352"
	.ascii	"I\\\362\361\260\235;2\177\370\364\341 \261:w\355\306"
	.ascii	"\367\301\004\272\215\034R\362<\2628\343,Liwx\021\023"
	.ascii	"\010\343\330\224\374E\004t7\026\221\312\241\366eR\322"
	.ascii	"\256>\325I\264\361\251\341\377\202\236b\374\336\360"
	.ascii	"\303\236\015^\307\200K\266\304\324\306'#y\015x\242\346"
	.ascii	"\356\226\007\251\276\374DE.\221\206p\271\263e\214\274"
	.ascii	"bPxE\272OI\241\011W5\250\247e2\225\314sC.\037p\376\021"
	.ascii	"\376\203\311x!\020\323\327\363Z\341\205\226\255\377"
	.ascii	"[\336\316\216}Z\350\2228\276\\p\\'\212\034,K\310\370"
	.ascii	"&\360oN\343\250\300\033\207@\326\322SykA#<\307x\362"
	.ascii	"x\373\362|\000\3340\225zq\337\327\360\316\361'\310\337"
	.ascii	"\305\000\300+\330\000\014MP\340\375\364\003Z)\000\234"
	.ascii	"\337\330Wy\256\227,\314 \272\344W\314\010\033\177\275"
	.ascii	"y\2043\250x\033\324\374\313,?C\\J\253\031$\006\253\356"
	.ascii	"\327Y\206\006\215\213o\236!\317l\345\317@\347\304\275"
	.ascii	"aKk.v\277\364\203\355\376\225\315k3\302\030{R`\364\277"
	.ascii	"H\275\015\351\370L\211o0~y\332X `\270\264\004\177\023"
	.ascii	"\201\264\010\020Lr\200\317\333#\236\013\324\026Z\371"
	.ascii	"1e)\200\025k*\352\353\242\025\325\033\253b\025\321\232"
	.ascii	"\352\352\232X\305\226\357j+\2435\261m\225u\365U5\261"
	.ascii	"5QP\321\315\304 \343\233\215\365\225Flku\255\371m\325"
	.ascii	"\246\252-\304K\254\375\027\022\263\246\005"
	.text
	.section	.gnu.lto_itoa.6afddecd56022411,"",%progbits
	.ascii	"x\234}R[KTQ\024\336\353\354}.\214sA\031\352EB*\032\025"
	.ascii	"r|\357\301\327\376A\017=\331`\344\2033\241\021\3644"
	.ascii	"\307\373\025\0133/\223\303\030dfej\027\315$\031S(\262"
	.ascii	",\265\007!\212\310\014\245\204\0143A\306i\255}\316\014"
	.ascii	"\025\322\300\354\263\367\332\337\267\276o\255\265U\246"
	.ascii	"\260\375\202\261\002\306\330\011\374\203\301@\2714\307"
	.ascii	"X\245\241(\274\301\307L\207\240\325\311AXa\241\250\333"
	.ascii	"n\014k]E\030VA\267\302Zj\243\003\320\3064\200\205\025"
	.ascii	".TM\2070\\\344\235\034\346k\206{x+\217q\006\002\217"
	.ascii	"\033\257\"\313n:\002\344\340\361\252\271\320\250\347"
	.ascii	"\365\233f\225\031\357\2148:\253k\217\307\270\302\272"
	.ascii	"\021}\023\262\241\037\262\311\336\000\344!\266ovz\322"
	.ascii	"\315\217\000\303}\343\227\215\311\014_\237\211\277\370"
	.ascii	"L\0337\017\3078\207[\300\377$b\210\301m\360!\374c\313"
	.ascii	"\350\240\213\347J\352ztbL\020\025%_^\226T\005\356\374"
	.ascii	"KU\030\014Jj\345\365\315)\225\347K\352V\315\324\204"
	.ascii	"\221Rm\267U\357\356\241:\004>\302\177\032\331\275\342"
	.ascii	"\322\004\225\203U\014\203\006\370\035Z\200\270\271\233"
	.ascii	"\2547\343[\271\327\022\336} \341\330\017\\\005\322\205"
	.ascii	"J\213\006d\335\000r\341\300\200\232A\213\223\234\271"
	.ascii	"h\347\241]&\355\262h\361J\313\254\011\205h\016\315x"
	.ascii	"\300/_\203\252\037\365\211\371a \361(\027Q4\267\006"
	.ascii	"\325\035uv@\305\030\372\3740\333\262#\207\"`7\231Lz"
	.ascii	"`\004\013\371\0145K\3233) \242\332Z\307\332\024\013"
	.ascii	"u\020\356\311\311\220\022g\015>\276\002U\275\313\355"
	.ascii	"\007d\215C\262o\211\357o\022NBsp\300}\211n\346B\272"
	.ascii	"Z\001E\326\034\345@*s\323s\003\205\226\214\006\3712"
	.ascii	"\355O\000\264\212($\362\310\215\015@\256\312\266\335"
	.ascii	"T\320\346j\244V'8\212t\324>}\255\223\210\"\347\363\353"
	.ascii	"\331\213\006g\014\242\2258\240\336\323\330\022Li\300"
	.ascii	"\003\022\207\207\020\003\204t\2576\275\225\245jp\024"
	.ascii	"F\361F\266\350\311b\257]\250\003MPl\251n\200[\221\014"
	.ascii	"\014R\323zRMsR\322B\233i\307\\T\313W\250\313\261\216"
	.ascii	"\036T\032\037\377\366N\017'L#\306\365n\274e0\006a&\363"
	.ascii	"a\006W\214\033\224a\363\371I\273\226\275\314{l\363\217"
	.ascii	",\363\351r\361!\301\270\335S\215u\025Y\203~\277x\306"
	.ascii	"\222\317\264\213H\333\313\372\333\236wO{\217\245=\344"
	.ascii	"\032HH\333;\366\037{^\333\336\004\332K\373\321\345\214"
	.ascii	"\327\361A\354\264g[z\006\315\264\011E\360\006_\351\241"
	.ascii	"\002\177Ey\300_V\\\032\364\007Bee\241\240\377\334\205"
	.ascii	"\263%\201P\360|IyEi(X\020`P\012\305\342TqE\311oX\212"
	.ascii	"R\006"
	.text
	.section	.gnu.lto_ftoa.6afddecd56022411,"",%progbits
	.ascii	"x\234\215V[P\223G\024\336\363o\256\177\002\221Vm\213"
	.ascii	"\301\306\261\226J[\221\332\007\355L\355k\037|\350L\037"
	.ascii	"\372L\221\266t\2708J\035\373\304\317\305\000\242\255"
	.ascii	"\330*rq\022k\255\012\010\242\305\212`\015 \012h\024"
	.ascii	"\201\242Q\012(r\023\361\302\2500:@\317\356&$AJ\310\314"
	.ascii	"\377g\367\354\371\276\335\363\235\363\357\256\232HD"
	.ascii	"e$\344{B\310\031|`\001\001i\367UBRu\222D3\326\021EV"
	.ascii	"\355\\D\024#\005\2650\253<\015\265\244\341\343Z>\256"
	.ascii	"\001\2350k=\015\235\244/\320\342\270\374\374\"A\007"
	.ascii	"=\230\204]\226\014\334n\024v\203\307n\224\202.\231\320"
	.ascii	"\036\334\264\036\315A\036s\260\247a\002`\015E\007$E"
	.ascii	"\242*\265F\253\323\313\006cP\260\011R\340g\232G\341"
	.ascii	"z\306\211\"\372\023\265Q\002*\354>q\026\364\006\263"
	.ascii	".\200\005\273\205Jk\266v\345\021EIS\034y\035r^\372\366"
	.ascii	"\317mT\"\371\350}\024\314p\004\314,\376c\260\022}\013"
	.ascii	"\316f\246\311\364] \330N\375c\374\262*\374\260\202?"
	.ascii	"G\373I\215\362\216\215R(\006\352\013D\023\201\022\010"
	.ascii	"G\367\226\322\361\227j\372\036\207\266\216\217\272\364"
	.ascii	"\014\212Sv\376B\031T\202\322\231P\211\300q\010g\376"
	.ascii	"g\232r\353\365\364c\216m\313:\333\245_q\210c\257\226"
	.ascii	"\204>IS\366+*\033UA\231\300\2571\303j\266b\302\234\257"
	.ascii	"\334\261\333\202\350g\034x\373FN.u\003/\226,\316MW\032"
	.ascii	"\031P\202\023\376\023\273\241/\007\177u\201\020\315"
	.ascii	"\210\335\264jW\256I\210\326\303\206\013m.\247L7p\346"
	.ascii	"\001k\315\204\032\231\035\250\304d\361\302\\E0\253\341"
	.ascii	"O\301|\012\231Oz\231k;\372\317\353\350W\034\232WS\330"
	.ascii	"\242rCG#R\025G\206\205\001O\317\012\034\250\311l\007"
	.ascii	"\3725\007\326\226=\332\302\202A\334\303\342PO0\0328"
	.ascii	"3k0w+&\367\006iTP\005+\340/|*\361\251\300\247\034V\260"
	.ascii	"Dc~\317\202\006\010\361\367\300\321\362Vp(\223S\231"
	.ascii	"\212\243?\342\340as8\360tj\200\275\265\274\255\343o"
	.ascii	"=K\265L\030\334\200M\255\011_\272P\366Z\202/\275\231"
	.ascii	"0\2620\326_\012,\253\026\226\337\345\370\222\011\331"
	.ascii	"\201\013`\025\234\203\031\307\177:\004i\235C\345\015"
	.ascii	"\032\276&\\\007\256\277\271\307\331\001kO+YL\035\002"
	.ascii	"\325\260\226\364A\232\275w\357\022\356T\301\235&\036"
	.ascii	"\036\330\245Z\366\235M\331\217^\006\026\366\356\226"
	.ascii	"\246\342\340\224\011\254\020\305~\037l\324\0105\260"
	.ascii	"\014\203=\007)\344\036d\334\254\357*Y\315\010\016P\015"
	.ascii	"z\227\326O\216CX\241\242c\242\361\312\375\033\302\270"
	.ascii	"\2029\330\311X\207\013K\337gu\336\210\027\020\255@\265"
	.ascii	"\035\254\337\206\240,EY\360|j\352m\374\020\331\257\247"
	.ascii	"0;\0358\307y\344\300\265Z\370BQ)\004rF\025\331\271\210"
	.ascii	"1\356\267\366}%\010u\363#t\274B\250\343\204j.^\037H"
	.ascii	"DX\201 {\201u\227\353\036\010~=\332\220\377dGu\035\270"
	.ascii	"'\220\335\354\370{!\330k\221\035\023\320n\255\242\002"
	.ascii	"%#\320;\037\346\027M\314\243\313z\334\365\273$|\014"
	.ascii	"\3146\014V\373b\326g\312WU=\270\255E\345u6\032\224\217"
	.ascii	"K!P\207\232\243'\216\355i\261?\223p\014\177\366\027"
	.ascii	"\222\215\006\363\202c@\250\207\024\226\310\307-\023"
	.ascii	"F\366\255\231@\206\013`\266\321\005,]\256\372\376Rw"
	.ascii	"\272d\364\332\267\275\356\232\226ya\341B\203\250\365"
	.ascii	"g\000\250/-(w\341\277N\325\\\016(\214F\344.\355\351"
	.ascii	"\240\263\317\300\360\010\036{\332Va\214*\347k(\303\310"
	.ascii	"Cx\301Gp\022\270\010Q\350\2229\244\234S1\376\020\260"
	.ascii	"\300%\316\237\203\271\343YC\256k\363\343j\344\\\371"
	.ascii	"\203;\332\203\005\327\207\320\344\346\322\361\204\015"
	.ascii	"C\206}`\337[\".\223\277t\257\345\343'A\240\031\245\363"
	.ascii	"\327\315\342\247\332eH\261\321\327\231D\267\352/\200"
	.ascii	"\227\2512\363J\205\314f]\010\000W\334\273A\016\246\263"
	.ascii	"@+b\270\025 \206\367E\014N\036\303\241\023G\255T\304"
	.ascii	"\260\032\256\"\033\247\270=M\32105\3460\211\254I\330"
	.ascii	"mj\316\255\325\276\302xM\254\002Z \312\313\321\031`"
	.ascii	"\031\037\010\314u7f\030\266\333\307\204b3JmQ>\2260\201"
	.ascii	"V\241\227\353p\252S\345\256\263\337\200)V\351Q\254\215"
	.ascii	"\327\231o!\216\202\237\244\355L\322\305\\.\231\340\201"
	.ascii	"L\271\270\317\217\257\367\252[c\333y\314\255\256\004"
	.ascii	"\377L\253k \015\032\241n\367\374\324\355\360\225bp\032"
	.ascii	"3\267~7|\2648\2227\207\0267\003j\341\012\244\305-\257"
	.ascii	"\026FR\341pk\321Q\346\243EvQ~\211Vh\201\007\355\264"
	.ascii	"\026Ad\310(\264\030\236\237\026\235>a\235\232+\254\177"
	.ascii	"\003\206\325\025(\254noX\301\244q\015esV\3175gO\300"
	.ascii	"9\357\004\232\363\256wN\223\367\353\317\213\020J\206"
	.ascii	"\316\372\365\367\2762\255\305o\322{\342\353G\231G3]"
	.ascii	"z\301\264\004\311\010?\256\262\325\302bF#\273\264\215"
	.ascii	"X[u,Q*\230\000\350C\251\247\267\366r\266\265\233\005"
	.ascii	"\317\271\356\205\002\026\306L\270\263[f\221\345\215"
	.ascii	"|<\304\010\364\363\215}\351\014e\356\373+3\000)Hf\243"
	.ascii	"o\262U\025Y\235\335v\367>eA(\216\360\352o\374\324]#"
	.ascii	"\323[\273\304\357:c\227\232\263\21468\220*$\307\263"
	.ascii	"9\004\2010\310\352\014\206\300\006\276\220\020<\015"
	.ascii	"\356{v\211<\365\377\247sxz\335\276\327\204\336\275\237"
	.ascii	"x\357\011\017D\272\370\222G<\222,\237\021i\277'R\004"
	.ascii	"\214\3600\371\334\263\035\205\356\231\037\212\231\221"
	.ascii	"J\260\327ur1X\231\260\263\242\307\261G\315\356:\300"
	.ascii	"\357:\217\360\256\343u\251\234\315\3451\272\214\340"
	.ascii	"u\350P\221Y,q)\373\230v\340\261\213%\206%\264|U\344"
	.ascii	"\226\3151\221\011\321q\211\2211I\011\011I\211\221\311"
	.ascii	"?n\212\215IJ\334\032\273yK\\R\342\252\030\002\333\014"
	.ascii	"\337\304'E'\177\231\2749.\361[y\343\246\015I1\321\311"
	.ascii	"8f\334\030\033\023\227\020\035\377ER\\b\262\214\217"
	.ascii	"\360\370\310\333\214Ro\215\216\377!VZE\376\003\227\253"
	.ascii	"'\232"
	.text
	.section	.gnu.lto_fastA2F.6afddecd56022411,"",%progbits
	.ascii	"x\234\215XyP\224W\022\177\375\275\271\031f`\270\257"
	.ascii	"\341\232\361\300(\030\357DQ\023\267j\367\277\375k\377"
	.ascii	"\267(w\327*\257\322l6[\033\313\211\007\240$\353U\306"
	.ascii	"\225\370\211Y5\306k\225\030\215\"(x\213\250\030OPIb"
	.ascii	"<\242\321\030Q4\200\300v\367\373\346P\250M\250\362\315"
	.ascii	";\372\327\307\257\273\337\233\321,4Q\035+\304\037\204"
	.ascii	"\020\321\232\020\320O\200\266\354\254\020\037\33040"
	.ascii	"\251\211T\223:\233I\223?'\210\200\303\274~\264\0108"
	.ascii	"\315\232\374\360\204\300\245e\241\025\227\026\315\312"
	.ascii	"\2076>\264\202C\201m\232\235\267\035\274m\017n;\300"
	.ascii	"\251&QjRgsjQJ]4\253\213\326\\\214\213e\234\013b\224"
	.ascii	"\270[M\352l1\232[\211\307\262x\254\026\307\342\036\026"
	.ascii	"\367\030\253,^\305i\361\274J\340U<$)U\011Z\"o'\361v"
	.ascii	"bp;\011R\324$YM\352l)Z\2622\225\312\246R\265\264\322"
	.ascii	"\376\270\312\240\321\231\006\031J<\003\3744\201t\365"
	.ascii	"Yg\363k\351\012\226\311\260L\360\361\271W}\326\331|"
	.ascii	"\232W\235g\361y\226\226]\355\305U\316\305|\\eC\256R"
	.ascii	"\233\023\234\344\002\320$`\0031O\223&\263\305j\263;"
	.ascii	"\242\234\321.wL\254'.>!1)9%5-#\335\237\351\365ee\347"
	.ascii	"\344\302<\253I\250?\247\361\031c|\246\030\237~\001\265"
	.ascii	"&\350\301?\340\265/\264v\363z\251\\-\341\374\302]k\345"
	.ascii	"\277d\205\024`\302\345\3433\345\337\273h\011\220\205"
	.ascii	"\313\205\007\0175\233\006n\016\340_\355\352j\327W\305"
	.ascii	"\213~_!5\261\006\245?G*6C:\352\201-0\020e\033j\027\357"
	.ascii	"t\310~ p\276\252X\277k\356\277)\020\230\037\250\275"
	.ascii	"\276R\006|\025R\302V\220\221@\334\022\260\015\372\223"
	.ascii	"\374\225u+>\261\310\001\214=\327^\337j\367o`\233g\253"
	.ascii	"bv\027\007N\006Lh\025\266\277\214\247?\024\277[]r\021"
	.ascii	"\344\020\206^^zk\205\313\2006|a\011l\014h\004\374o\237"
	.ascii	"\300\262\233\037\355\0029\234\201\337}\263\350\205f"
	.ascii	"\000\257W\206\200\273\372\004nz\266\361\236K\216a\340"
	.ascii	"\315\356\037\362\014\334\361*\317\362\005\312W\023|"
	.ascii	"\321'\362fe\367\252h\213\011v\203\037*\361\337N\374"
	.ascii	"\267\003\374\304'\322\370%X0Q\226WO\021w\265\351D\231"
	.ascii	"U\026\262\305\216\322u\3774,\266\324x+C\354\354\351"
	.ascii	"m\021\3662\372\314\351\372\243RNb\364\235\273\215\007"
	.ascii	"9PL\314\361C\351+\014\207\315\360U\037\360}\340\337"
	.ascii	"\3715\324\006\272{J\002\265\335c>}\354\377\035p\312"
	.ascii	"4\036U\372L<\232y\264\360h\345\321&(\020;\217\016A\001"
	.ascii	"E\011\012\311\311c4\217.A\001\272y\214\3411\226\235"
	.ascii	"\366\260\3558\036\343yL\300r\321\022\201\024'\343\324"
	.ascii	"\222\3026R\031\223\306\022\351\274\223\301;^\236g\222"
	.ascii	"`\026\015\331\204\316a\261\\\234\232|4\370i\263\037"
	.ascii	"\373\321\237\345\007\3608\220\000y4\014\"\251\327h\030"
	.ascii	"L\242Ch\310g\371\002\366r(\313\277N\242\303x:\234\246"
	.ascii	"#x:\222\307Q\2641\232\20618\230\337\240\341M\032\306"
	.ascii	"\262/\343X\250\220]\036\317;\023x>\221\347o\221\275"
	.ascii	"\267i\230D\203\020K\260JJ\315\242\014\347\245fy\033"
	.ascii	"\346\257\337\240\247p\325P\305\344Q\322\312\260\247"
	.ascii	"JO\011y\017\026\254-\276\3216\215Nu\231\242c;\027\244"
	.ascii	"\013\204d\261<Z\305]\2267\011\274vP\231J)\012\212{0"
	.ascii	"\277c\311\231\266\367\0246\031\213\346\343E\207\317"
	.ascii	"Y\351R\220\\C\317O\324\227:+@\377\000k0\253BZI\373~"
	.ascii	"\252\031\250\202\012\020\267`a\363\221\353\020\206\227"
	.ascii	"\334\013\324\230\010n\205,8\240\212\253\015@\227\211"
	.ascii	"\232@7\344\326\037\001\0351\213\365\243%c\357T\315\216"
	.ascii	"\260}fy\225E\201\355PmTf\231\264\004)\270\253\247rH"
	.ascii	"\225\\\3525{Z\217\2322>\011\224\006\0021\330K\201\340"
	.ascii	"\037\020\201P\003\031\312\273\313\007\012\302\026\326"
	.ascii	"\374\260\344\242KY\030\014\007C\026\254\002;\212,<\322"
	.ascii	"\275\021\026>]9\377\221KYX\006\275M\034B\023L\376\231"
	.ascii	"\347\006\371\351}\222\257\222e\023\027\244\212\371\331"
	.ascii	"\201\302\260G\333o\265\266;\224G\203\2406\344\221],"
	.ascii	"\000\225\331\256\240ro\237\312\275,\356P\024i\334{:"
	.ascii	".\303I\326\010\260~\207\212k'\307\265\375H\367/\200"
	.ascii	"q\331\310\026\207R\207\241`\2364t\326\272\344\021\246"
	.ascii	"\013l\230.\257\375\376#h\003\007Ej\355\370\3511\020"
	.ascii	"\253\266\252\237\316\363\304\256\241\341(\361\357a\344"
	.ascii	"gy\361\215\366j\243\016\262u\031\205V\21666\264X\215"
	.ascii	"\374\230\302\344\255W\344\035f\362\346\267\226l\261"
	.ascii	"+T\256.3\211\316\217\213\233\214\035\037n\242\236m\317"
	.ascii	"\226\335\340\234\231\340\217p\004\031B\330\345\342v"
	.ascii	"\253\022\302h}\012\326.\325N?\366\300\037\346i'Q\322"
	.ascii	"O\245\352a\273\301&2#{\263\331\237\331tRy2\203\014\215"
	.ascii	"\212`S\032-\323n\264Lf\237=\"\215\0369J=\302\316\255"
	.ascii	"1\334\315R\220\373\325\3377H\225\365F\200c(\214\225"
	.ascii	"q.\324IY\301\352o\003\211\031t`.\372G\325?\301\\DQ\252"
	.ascii	"\034\367[1E\375\242\252\236\264S7ES\362U\255\327\024"
	.ascii	"\204\335jx\366\342\260M\331\030\002\307C\225\345\012"
	.ascii	"\325\372\272\314\210g\012\3578~\225\320\353\023\310"
	.ascii	"\206zM\376\177\012O\206\352\277s\032\201t9 \222\324"
	.ascii	"\023AR\007\260]\267\330\346\222\234\361\256N\254\024"
	.ascii	"\226\037\244\313\201\212\237-V\265\363\032n\206\223"
	.ascii	"\274\306\256v\007\343\001\3115\026\033\300!\274\027"
	.ascii	"\253\260\373\315j3_\227N<\012[\347\354\345\013.\317"
	.ascii	"Es\225P\001\302~5\262S\030YH\313^\322R\240\"\325\273"
	.ascii	"\336Wj\206\352X\216\275\"\035\312\221\306\210o\335\252"
	.ascii	"|\030\032+\302\245\344\214(%\223*\245\207\235\237\033"
	.ascii	"A\015\354\263\226LF-\325\207j\251\311\340*\017!\341"
	.ascii	"\332yah\311\013\327\216\011\271w\225?o\302b\031\352"
	.ascii	"\256\352h\307\372A\202\242\\XN\371\356\216\347MZ\033"
	.ascii	"\304R\026]\035\317\332Q\246\300]\336\321DM\035\033\272"
	.ascii	"M\330\351\350\010\247\315|\233\034\250H\343\236\331"
	.ascii	"\361\033.\342\323\252\321;\226tu\375U\025\347\353}\306"
	.ascii	"i6\342l\010\275+G!,\177\355\301\262Z\253*\346\333\002"
	.ascii	"\316\004#4c\301Ec8\246\030\\Dcl\264p\306P\026<\241\373"
	.ascii	"\366\201\026\326\263\272\366E\267\241\347\230\200\263"
	.ascii	"\241\256\210\023\3734u\337\352=\323\"\332b_\270-\316"
	.ascii	"\221\216a\344h0\357\347\202y\037\306\254<\251\360\362"
	.ascii	"\226\361Bs\3207z\336Q\300\341\250tOIC\245C\275\255\200"
	.ascii	"\313\256{\013\366\230^\341\240\22198\037\342\340\026"
	.ascii	"\030\360\210\327*^\\\021\334\301\235\025y!\203\203\224"
	.ascii	"\301\222\256\236\367\025b\004Z8\326\363\274\326M\006"
	.ascii	"m\240\341\362\351\342\263=\250Y\007\303\330\327\244"
	.ascii	"\222~\010\\\252\374\3212o.\371u\201,\013\270\010\363"
	.ascii	"^\011q\004\233N\020\337\201\"\365\354\311?\005=\013"
	.ascii	"\277Z\211b\274d/v,\237\253NG\3766\263\227\224\331\313"
	.ascii	"\275\314\216d\275I\224\035.\302\335T\220\266\210\202"
	.ascii	"\2640\365\373}\014\331\307\365\270\363\301\376\366h"
	.ascii	"\212\332\214\337`\257\220\2616&$\376~\017V\371\260\204"
	.ascii	"\252n\352\210\221\211\315\377\351\300\216\260!u\361"
	.ascii	"\315=\347"
	.ascii	"5\314YBy\017>ry\351\211\324\005\311\342B\262z\332>Z"
	.ascii	"\371\320H\303\030]z(s?7v9\225\005\007\\U\267Uk\311b"
	.ascii	"\273\022zC\227\243T\247\032\2507\031\370F\350\266\342"
	.ascii	"\315\261\270\217\252.t.=\004JU#\375Z\203&\210\250\256"
	.ascii	"}\024\356X\343\356Yip:N\307\352\355U\203\343\230\251"
	.ascii	"\024\361a\232b\212\241\236\010\246\254F\033.\337b\270"
	.ascii	"5\252\317>\264\032}\330\034y\337\260\374h\204\274t\337"
	.ascii	"\250\335\360}\203hK\0226\340\270\344\255\237\341\335"
	.ascii	"\342!\362\223\3527\340\267\212\261\311\345\2375\023"
	.ascii	"\251\251\224I\304_=\322rj\264R@\2046\256\325\353\315"
	.ascii	"\212\205/5\270\026*\2504\261V=VO6\016\012\022b\034\227"
	.ascii	"\311\014\322\205f3\350\216Ik\356l\002\232\244\242\345"
	.ascii	"\034\222I+\337\334\214\246=\251$\233\036J\346\252U\206"
	.ascii	"\343\205\272t\241\351g'.=u\033\267WZ\360\366*m9\250"
	.ascii	"n\257\353\301\227\340\234\272\356\020\246H\331\024T"
	.ascii	"3^\227q\250\346\342\302\215-v\025\301/\234\307\033\275"
	.ascii	"\3628\236\275\366c\206 \234\2418\225!V\355\022\314\314"
	.ascii	"\361\372B\245\232\364>]\262\350\271Tz\255\320\022d\332"
	.ascii	"\245\313\214\014d\2720\275jk3\006\034\247\313\034Z\217"
	.ascii	"O\257\337J4g\032\324\244\242R?~\246\2412?Y\367\206x"
	.ascii	"\270\024\014`\202.\335\277\372\"~\323\213\207\011\212"
	.ascii	"\207\333A5\023u\031\217jn\234\334\262\315\360\227\377"
	.ascii	"\367\001\276\355\305\303D\346\301\3672\017\361\021<"
	.ascii	"\270\211\207kG\356\004y\210W]L\201\273u\231\232\211"
	.ascii	"\201N\360Vm\243\300\343u\231F\353\211\336\372m\024x"
	.ascii	"V\350\351bM1\"|k\330\225\326\226\323{\215w\305\256~"
	.ascii	"G\241V\232y\312\357\237\302k\301\346\303u\014\025\222"
	.ascii	"\207*\012\235\361\221\267\331\242\213\277\2177\026\327"
	.ascii	"\254~h\274'o\341\323H&\350<\207~\2161\257\206\362\267"
	.ascii	"#\016s\311)>\\cV\247\223\360;\272\216\267\351C\343\333"
	.ascii	"'\356\260#\011\2505\2735\021\3419\032\376\006\004\004"
	.ascii	"\342\217\301\334!\371sf\027\345O\237<uF~\321\314\351"
	.ascii	"\323g\316\310\177\347\037\263\246\024\315\234\361\356"
	.ascii	"\224\331s\246\316\2341\244H\300,\363\234\242\311\323"
	.ascii	"\246\230\337\235<\355oSLs\246\376e\206\351\317\263'"
	.ascii	"\027\231g\315\374\373\320\002\363\224\367f\315\234\361"
	.ascii	"?\226c\250\003"
	.text
	.section	.gnu.lto_.symbol_nodes.6afddecd56022411,"",%progbits
	.ascii	"x\234U\3161j\002A\024\306\361o\346\355\314\356\272\273"
	.ascii	"\027\010B.\221\003\350\261\254\336\020\226\010Z\030"
	.ascii	"\022\360\000\222#\244\321NY\020,\354\264\264\220$\020"
	.ascii	"\260\266\325\231Y\005_\365\237\367\343+\306@c\240\000"
	.ascii	"h\313\300\373\026\360\231\273\245\263\236*V7R\363z\351"
	.ascii	"z\236\300\372\276Z\270\276\007\305$As\"\201\330HH\330"
	.ascii	"J0\234JH9\223\220q.!\347\216\000Up\021\001p\341\243"
	.ascii	"\252\344R\334\035\256\036o\362\217\343\367\013\221\306"
	.ascii	"\353\360\364L&ik\025fogC\251\305j\363\373o(\003f\353"
	.ascii	"\213\216\035\235\272\224gX\205a^\241\031\205\026\370"
	.ascii	"\031\037T\354v\027\333L\376t\274'\373\247\260\253?\302"
	.ascii	"\256\304\327g\273\257\247m\033_\\\0013[_}"
	.text
	.section	.gnu.lto_.refs.6afddecd56022411,"",%progbits
	.ascii	"x\234ce`b`d\000\002\000\000I\000\011"
	.text
	.section	.gnu.lto_.decls.6afddecd56022411,"",%progbits
	.ascii	"x\234\235X[P\024\351\025\356\323=\314@s\263\314\326"
	.ascii	"\306\255b\023\343&\245\261Jf\203\225\315\232\207\354"
	.ascii	"\246\334J\254<D\036\262f\037RE\306q\\I\341`\301\220"
	.ascii	"\215yH\032\020TT\274\240\262\200 \242\"(\312U\020\001"
	.ascii	"\031\360\002\272\200\014^QD.**\210\010\242\242\353\222"
	.ascii	"\363_z\246g\030,*]\234\356\371\377\376\3169\337\371"
	.ascii	"\376Kw\343#\210\202\362#A\260\202 \264H\2020\211G\200"
	.ascii	" \010\307\321\014h\313\321J\321\312\320\212\321\302"
	.ascii	"\321\364hK\005v\004\241\325\242\331\321\232\320Z\320"
	.ascii	"\256\240\335D\353B{\2006\204\366\014m\2348`\236 \264"
	.ascii	"\037\2030\345X\217}\276x\235\215\366\036\332)\236\237"
	.ascii	"\344\235\203\367j\360\372!\367\003\236\327\363\210\307"
	.ascii	"\033:M\214p\356\257\372\330\275\370l\347yWh\374\346"
	.ascii	"\363\334\341\234\2076F\223\227\030\031xC\366\210\241"
	.ascii	"\347\276\363\271\377O\200\305\274\300}D\256\227\267"
	.ascii	"xG\200\351\257\2157\035\237+^\374K\361\206\237\207\277"
	.ascii	"\352\253j\372S\304th\270\334\234&V5\260Z<5\235\213\375"
	.ascii	"\365\032\1772\336v/\376\255\\\233bM\214>\036g\031Z/"
	.ascii	"Z\017\332\317\020w[\023\357\001\217\351yt\362\332\264"
	.ascii	"\363\204\304\372\2530u\276\250\261\310\034\3646_\372"
	.ascii	"\021\367\201G,2\267\177\211\375\241h\277\346\265\223"
	.ascii	"\270!\234\253\272\036~\203\367>\005\226{\220\347]\202"
	.ascii	"\355\367\311|B\373-\332gh\237\243}\301\347\255\217\300"
	.ascii	"\326\002\341C\327\000_\017\236\307\240G\215Ky\356pM"
	.ascii	"\215D\263/9\236\204\030\367R_\272\004\216\015%\373\244"
	.ascii	"T\011f\313\240\303\346\263\326\314\376 l\276'\303\\"
	.ascii	"l\246T^\351\326\311\233\024<v$*~\313\010\254\000B\340"
	.ascii	"\010`\271P\0108p`\014\201\217CH\250\363\223/\355\301"
	.ascii	",\224\210\315\216\221\226l\177\026j\0266\257\275\252"
	.ascii	"{\035 \211\200H]\317\301\321A=,\010\001\220\321\362"
	.ascii	"\025v\370\012P\0142\024\201\244\362\313T0\365\310\177"
	.ascii	"I\267\200\277\022\224\221<E\232#\300b\232\022\216\303"
	.ascii	"\002zK\200\022\344t\0029e*\276\264\007\363m}\342\370"
	.ascii	"6`\366\016J]Q\346\002\215}\014qG)\367R\230\255V@\033"
	.ascii	"\304c\327@\203\034\220B\362\260b\261[Sm\031\004P-\361"
	.ascii	"\212\340m\031\245\353\272\241\013\260 \020\231\310\300"
	.ascii	"\316@\2156'\325\003\200\366\013\004\013l<x\227\363\""
	.ascii	"8!\254)\362\220\364\217_A\023QP\273x\014\352\256\206"
	.ascii	"v\216:\360p\242+\001\200\326A\023\220\321\326Pb|\\\305"
	.ascii	"\201:i\206\266\216\355\327\335\205;\000\376B.\231\300"
	.ascii	"\330\227_zx\217,\031\310\370B\373\300\333\373\020Z\244"
	.ascii	"\216k\210k\272\235(zS\"\353\2606X.\303J\035\351\312"
	.ascii	"\032?}\005\264\262\223\201r\311~\012\002\240\022B\231"
	.ascii	"\373\245\241\213\247}\250;\351\256\002\032@\031\316"
	.ascii	"\350\361WcV\263\276\275\023-as\366\322\364\211\312,"
	.ascii	"\221\302]\203_\003s\360|\032t,jy\337d\235a^\256b\357"
	.ascii	"Q\354O\363>\353=\230\254\264\243\343\347\024\010'A\342"
	.ascii	"\004\310O<W\300]\200r\350Fuja\036Iv\331\361\322GZBK"
	.ascii	"\377\341\373\236.\240dH\031\254\302\276\274\266>\177"
	.ascii	"-\233p\355L\254\247d\316\250d\266\324?\036\014F2\355"
	.ascii	"\224\314BG\231]IB?=\301A\235\213K\235'\027;\345R\225"
	.ascii	"\3252\344#}A\271\234\3319x#\330\251\026\343\322p\375"
	.ascii	"Nv\000\355C\022\215L\254\346\261\361AI\025\360,\353"
	.ascii	"KN\034>\307\352\230/\3039\326\267\2531\353\025h\353"
	.ascii	"X\361\276\246\216\013\264\216\363j\035\317\012\373'"
	.ascii	"\375\260\216\036\254\243\315\234\241\330\023\320K$("
	.ascii	"hpU\321\340YE\023\255\"\247|$E\226\3764\203*\3642\\"
	.ascii	"d\354\312n\234\337\0314-\273\357(\273K*\273\356\263"
	.ascii	")}zd\227\213\354n\355\221\224\335\3504\213\200\240\331"
	.ascii	"E\256\331\223\\\013%\227v\360fe\220\264|f\022\267y\221"
	.ascii	"\370\262\247\304\330\327>\023\211;h\021\016\265\210"
	.ascii	"\207\317s\342\203\271\304\243{\325\"\020\004\255\256"
	.ascii	"\"Z=\213\270B\213hI\357\306\331\374\227\231\025qm&\012"
	.ascii	"\337\240\344\256\253\344\322\256:&D\256p\343\007\316"
	.ascii	"\361G\024\\u\261\273\352\311\356&e\267\247\374a\266"
	.ascii	",}\365\177\256\250\333\224\311-\225\311\313\242\324"
	.ascii	"\025Hd\204L\304L\2311\211\027\011\012:]L:=\231tQ&\015"
	.ascii	"i\257j\014\322\337\300}\363Z\246\312\324{\344~\234\252"
	.ascii	"R7SiG\353\201,?\231?\2566\275\363q\205\350\221\261\256"
	.ascii	"\253\242v\367\353q\333\375z\331C\007\201;\023\216V\007"
	.ascii	"h\201xK\003\354s\002\367\016\244\247\260\221\303>,\207"
	.ascii	"\222\332\231\364z@r\212\330\317:\357\264u\\\227\265"
	.ascii	"*\272?\"\357S\031\357\2512\276i\0329\032\304\007t8+"
	.ascii	"\3009\242\010\303'\201S\307;\236:>\240:\026\017W:|\245"
	.ascii	"\277{\350\030\256\016\250\373\306\376\320scG\334\243"
	.ascii	"\231l\354\203\224\362c\225r\312\226\315/|\370\002y\232"
	.ascii	"\367\321h\231B\367R\035\301\301\200\213\363\200'\347"
	.ascii	"!\312\371VNs\276\257d\231\301\032Y\352\017\303\214_"
	.ascii	"\311\231\364-\001\323\023\034\241\004\237\252\004\213"
	.ascii	"6\345\035R5\275\265\320))\242\340\211\213\336\023Oz"
	.ascii	"\317(\275\222\334g\033\202\245\177Pz\303\373\332\223"
	.ascii	"\231\244\275Nz\311\347z\366\373i\251 K\027\223\347\224"
	.ascii	"\311\230\312\304Qp\357\204\037g2\3308?-Q)@\267\\=\301"
	.ascii	"\301\250\213\313\250'\227q\312%\275J9d\220b(\227\326"
	.ascii	"\342G[\364\322z\372\273$\353\301%\003\362\202\227\364"
	.ascii	"\255\216\364\304\333\217\004J\377\241w\363\016\347t"
	.ascii	"\370\221\273\023x\027^1\005\275\225rq\242)\333\245\376"
	.ascii	"\033\006|\336\225Q\353#%\003\015U7~\347\242HB\275U\023"
	.ascii	"=\250\177\363\302\177\232\221\200\0370\004LR\011\276"
	.ascii	"W%8T\226Z\347Kf\013\276\011\214\025.LK\314-P\354\320"
	.ascii	"/\022\034\274P%\200\327\240#-\366Z\244\210\244\372\366"
	.ascii	"\336\035\303 \025\3014%\273\227\231 \262\305\327\\x"
	.ascii	"\214\274x\343\336O^\277\202\311\032\031\252\236\010"
	.ascii	"d]\224\317\304\323\252\000\251\202F\025\035uOz}a\201"
	.ascii	"L_\226\355w\213\347\325t\221\267\332M\242\014\311\242"
	.ascii	"st\226\223\327\331M\316=Bpn\020\260Q\\@\342\022\034"
	.ascii	"$\211!\260A\244\333ON\343\323x6\205I$&\366\243\346\214"
	.ascii	"B\177\347\000lft\017?\336\334np\216@\012\353\234*\372"
	.ascii	"\335\233c\211\362t\242oE/\330&\022\321\267\210\\\364"
	.ascii	"o\207\322\017\006p\321_\026\206=/S6$)s\206E\202\203"
	.ascii	"x\2652H\024u\244\305DO\245\242O\364\237-\015\222\206"
	.ascii	"\231\350I\351)-\2224\316\032G\367\026=#E\301\016\221"
	.ascii	"\323\352\353I\315\007uL`'c\337\237|\355\214\277sXv\211"
	.ascii	"\323\316\276\251e^\276\225\277\317\3551M\324S\313\334"
	.ascii	"C\312\334K\313\334\255\226Ys\242\266!\230\227\331\266"
	.ascii	"A\312P\032\023\224\255\312\254\307\"\001\302vg\235i"
	.ascii	"X\347v\265\316tZ\347\303\007\343UA\332\215\237\274\224"
	.ascii	"\2726\376oE\366Y\202W\004\277\252u\344\211\354\033\354"
	.ascii	"\347\330\314\314\351L\325O\373\375\226)\362\357\267"
	.ascii	"\0146\031\272\355m7\365\314\371\027\330\254M\274\336"
	.ascii	"\354\303>\340\012\310\007]jJ\346F\177\317"
	.ascii	"/\252}8\227\262D\022-[\234\255\306\244\015\3626\223"
	.ascii	"\350\350w{\265\277\340F=\207S\317\241\324\247\200;\334"
	.ascii	"\300\3739x?\005\367o\032+\011\324\202\353\335\300\271"
	.ascii	"\034\234\353\035|\333\015|\200\203\017Ppq\322\275B_"
	.ascii	"\254:\004\327%h\026e\010[\224\025\366\261\343:\3515"
	.ascii	"[\224\225\025\3672e\347\242\034h\376d,\211l\337\371"
	.ascii	"8\031\016\271\026e\210sQ\272\177\276\036\306%\031\302"
	.ascii	"\227\344A\2241\217\215B\341\376\202s\201R\031\375R\026"
	.ascii	"3\3664T\00493\334\270<\257\234f(\304\014G\\\031\362"
	.ascii	"\305iR\024xIA\2341\315\215\316\015\325\300\006\333\237"
	.ascii	"\274\265|w\367\253i'\3121u\242\034e\024\337<\334\335"
	.ascii	"\311}\211d\0115\235;\203\331D\351!\267\343\307\016\016"
	.ascii	"\006zN\224\343\230\276\210N\224\023t\242\034c\023\345"
	.ascii	"\004\235(I\333\216\247\313\030A\3176C\003v\335\033y"
	.ascii	"]\251c]$\320\277\260+;\243\013W\374\035\246\314P\357"
	.ascii	"\346\024_\215\366\277;B\225)GeJ]\312\350\2710\312\224"
	.ascii	"\015\261\014\245\321siJ\220[1+mtb\244B'\015\260\034"
	.ascii	")\275\243o\203A^\3405@\245\227\000\3520\205\235\244"
	.ascii	"dN\"\231\012\027\231rV\362I\252\377\224e=\3506)\253"
	.ascii	"\370\244\254\242\223\262\256\273{\213\333\277&P6\355"
	.ascii	"72\007\237\242\340\246\355\005O\365Z0\331b\\\340j\016"
	.ascii	"\256\246\340\372\246\253\273\334\326\306\244\033\215"
	.ascii	"\323\034|\232\202\367$O\224\371\250\340\204w\274\254"
	.ascii	"\306\3337:\330.Z#\252\273\350\261\216\027\273e\255\363"
	.ascii	";\276\363\007\035\243\327\374\250\177\035\372\327\362"
	.ascii	"GPKO\235\317;\037\350\365t\323=C7]\322@\247\335\005"
	.ascii	"\247\323\375\264\365ms\023\303\316\353\263\323\372\274"
	.ascii	"=\015\0174o\275\021\350,\245\201Q\251O\315\254\002'"
	.ascii	"\277F\326\331\267\355bU\320;\237}\347(\277\263\214\037"
	.ascii	"i\350\314kL1\272\210\3100\223\357\037\377\374\345\334"
	.ascii	"\245K\226\010\037\205\032cc\314\306\265\246H\253\321"
	.ascii	"\034\275vm\264\325h[\277\316b\216\266\376\323\022\023"
	.ascii	"\033\031m\0155\013\262)lU\350:S\214-\364c\237\270(\364"
	.ascii	"\326\321S\034\236$bx\033-R\027i\2136\351V\343\311\260"
	.ascii	"\332\024k\373}\330\037\364\261\266\030\263\311\246\213"
	.ascii	"\262\230V\033\254\321\26651\321\337\340\325j\215\213"
	.ascii	"\212\372\320\030\027\033c\214\264\232\243\342VY\214"
	.ascii	"V\3137Q\221+\215\210\217\264~\035\272F0\340/\253y\335"
	.ascii	"z}l\344\277-\021\2660\012&\210\257\315f\243)f\355\""
	.ascii	"\214bYd1\255\2144~\022\2728\364W\316@\261\266U\253,"
	.ascii	"\2531\002\311\035e\261\352\326\305\305X\374\"\"\342"
	.ascii	"\"\255\266O#l\213\274e]k2\257\211\264Z\214\021\350i"
	.ascii	"\212\213\262E\020\005b\011\013\3565\317+\327\365\261"
	.ascii	"\306\010L\207\020\204b\012\374\2618,\302f\340\327\377"
	.ascii	"\001\253\310\034X"
	.text
	.section	.gnu.lto_.symtab.6afddecd56022411,"",%progbits
	.ascii	"uli2a\000"
	.ascii	"\000"
	.ascii	"\000"
	.ascii	"\000"
	.ascii	"\000\000\000\000\000\000\000\000"
	.ascii	"\307\000\000\000"
	.ascii	"li2a\000"
	.ascii	"\000"
	.ascii	"\000"
	.ascii	"\000"
	.ascii	"\000\000\000\000\000\000\000\000"
	.ascii	"\314\000\000\000"
	.ascii	"ui2a\000"
	.ascii	"\000"
	.ascii	"\000"
	.ascii	"\000"
	.ascii	"\000\000\000\000\000\000\000\000"
	.ascii	"\323\000\000\000"
	.ascii	"i2a\000"
	.ascii	"\000"
	.ascii	"\000"
	.ascii	"\000"
	.ascii	"\000\000\000\000\000\000\000\000"
	.ascii	"\330\000\000\000"
	.ascii	"a2d\000"
	.ascii	"\000"
	.ascii	"\000"
	.ascii	"\000"
	.ascii	"\000\000\000\000\000\000\000\000"
	.ascii	"\334\000\000\000"
	.ascii	"a2i\000"
	.ascii	"\000"
	.ascii	"\000"
	.ascii	"\000"
	.ascii	"\000\000\000\000\000\000\000\000"
	.ascii	"\346\000\000\000"
	.ascii	"itoa\000"
	.ascii	"\000"
	.ascii	"\000"
	.ascii	"\000"
	.ascii	"\000\000\000\000\000\000\000\000"
	.ascii	"\354\000\000\000"
	.ascii	"ftoa\000"
	.ascii	"\000"
	.ascii	"\000"
	.ascii	"\000"
	.ascii	"\000\000\000\000\000\000\000\000"
	.ascii	"\361\000\000\000"
	.ascii	"fastA2F\000"
	.ascii	"\000"
	.ascii	"\000"
	.ascii	"\000"
	.ascii	"\000\000\000\000\000\000\000\000"
	.ascii	"\365\000\000\000"
	.text
	.section	.gnu.lto_.opts,"",%progbits
	.ascii	"'-fmath-errno' '-fsigned-zeros' '-ftrapping-math' '"
	.ascii	"-fno-trapv' '-fno-openmp' '-fno-openacc' '-mthumb' "
	.ascii	"'-mcpu=cortex-m4' '-mfloat-abi=hard' '-mfpu=fpv4-sp"
	.ascii	"-d16' '-ggdb3' '-Os' '-fsingle-precision-constant' "
	.ascii	"'-flto' '-fuse-linker-plugin' '-ffunction-sections'"
	.ascii	" '-fdata-sections' '-fverbose-asm' '-ffat-lto-objec"
	.ascii	"ts'\000"
	.text
	.cfi_sections	.debug_frame
	.section	.text._i2a,"ax",%progbits
	.align	1
	.syntax unified
	.thumb
	.thumb_func
	.fpu fpv4-sp-d16
	.type	_i2a, %function
_i2a:
.LFB6:
	.file 1 "./src/main/common/typeconversion.c"
	.loc 1 126 0
	.cfi_startproc
	@ args = 0, pretend = 0, frame = 0
	@ frame_needed = 0, uses_anonymous_args = 0
.LVL0:
	push	{r4, r5, r6, lr}	@
	.cfi_def_cfa_offset 16
	.cfi_offset 4, -16
	.cfi_offset 5, -12
	.cfi_offset 6, -8
	.cfi_offset 14, -4
	.loc 1 126 0
	mov	r6, r0	@ i, i
	mov	r5, r2	@ base, base
	mov	r0, r1	@ a, a
.LVL1:
	.loc 1 127 0
	udiv	r4, r6, r2	@ _5, i, base
	cbz	r4, .L2	@ _5,
	.loc 1 128 0
	mov	r0, r4	@, _5
	bl	_i2a	@
.LVL2:
.L2:
	.loc 1 129 0
	mls	r4, r5, r4, r6	@ tmp123, base, _5, i
	ldr	r3, .L6	@ tmp117,
	ldrb	r3, [r3, r4]	@ zero_extendqisi2	@ tmp124,
	strb	r3, [r0], #1	@ tmp124, *a_1
.LVL3:
	.loc 1 131 0
	pop	{r4, r5, r6, pc}	@
.LVL4:
.L7:
	.align	2
.L6:
	.word	.LC0
	.cfi_endproc
.LFE6:
	.size	_i2a, .-_i2a
	.section	.text.uli2a,"ax",%progbits
	.align	1
	.global	uli2a
	.syntax unified
	.thumb
	.thumb_func
	.fpu fpv4-sp-d16
	.type	uli2a, %function
uli2a:
.LFB0:
	.loc 1 26 0
	.cfi_startproc
	@ args = 0, pretend = 0, frame = 0
	@ frame_needed = 0, uses_anonymous_args = 0
.LVL5:
	push	{r4, r5, r6, r7, lr}	@
	.cfi_def_cfa_offset 20
	.cfi_offset 4, -20
	.cfi_offset 5, -16
	.cfi_offset 6, -12
	.cfi_offset 7, -8
	.cfi_offset 14, -4
	.loc 1 28 0
	movs	r4, #1	@ d,
.LVL6:
.L9:
	.loc 1 29 0
	udiv	r5, r0, r4	@ tmp124, num, d
	cmp	r5, r1	@ tmp124, base
	bcs	.L10	@,
	movs	r7, #0	@ n,
.LVL7:
.L11:
	.loc 1 31 0
	cbnz	r4, .L15	@ d,
	.loc 1 40 0
	strb	r4, [r3]	@ d, *bf_2
	pop	{r4, r5, r6, r7, pc}	@
.LVL8:
.L10:
	.loc 1 30 0
	muls	r4, r1, r4	@ d, base
.LVL9:
	b	.L9	@
.LVL10:
.L15:
.LBB2:
	.loc 1 32 0
	udiv	r6, r0, r4	@ _17, num, d
.LVL11:
	.loc 1 33 0
	mls	r0, r4, r6, r0	@ num, d, _17, num
.LVL12:
	.loc 1 34 0
	udiv	r4, r4, r1	@ d, d, base
.LVL13:
	.loc 1 35 0
	cbnz	r7, .L12	@ n,
	.loc 1 35 0 is_stmt 0 discriminator 1
	cmp	r6, #0	@ _17,
	bgt	.L12	@,
	.loc 1 35 0 discriminator 2
	cmp	r4, #0	@ d
	bne	.L11	@
.L12:
	.loc 1 36 0 is_stmt 1
	cmp	r6, #9	@ _17,
	add	lr, r3, #1	@ bf, bf,
.LVL14:
	ble	.L16	@,
	.loc 1 36 0 is_stmt 0 discriminator 1
	cmp	r2, #0	@ uc,
	ite	ne
	movne	r5, #55	@ iftmp.1_6,
	moveq	r5, #87	@ iftmp.1_6,
.L14:
	.loc 1 36 0 discriminator 8
	add	r5, r5, r6	@ tmp132, _17
	strb	r5, [r3]	@ tmp132, *bf_2
	.loc 1 37 0 is_stmt 1 discriminator 8
	adds	r7, r7, #1	@ n, n,
.LVL15:
	.loc 1 36 0 discriminator 8
	mov	r3, lr	@ bf, bf
	b	.L11	@
.L16:
	.loc 1 36 0 is_stmt 0
	movs	r5, #48	@ iftmp.1_6,
	b	.L14	@
.LBE2:
	.cfi_endproc
.LFE0:
	.size	uli2a, .-uli2a
	.section	.text.li2a,"ax",%progbits
	.align	1
	.global	li2a
	.syntax unified
	.thumb
	.thumb_func
	.fpu fpv4-sp-d16
	.type	li2a, %function
li2a:
.LFB1:
	.loc 1 44 0 is_stmt 1
	.cfi_startproc
	@ args = 0, pretend = 0, frame = 0
	@ frame_needed = 0, uses_anonymous_args = 0
	@ link register save eliminated.
.LVL16:
	.loc 1 45 0
	cmp	r0, #0	@ num
	.loc 1 44 0
	mov	r3, r1	@ bf, bf
	.loc 1 47 0
	itttt	lt
	movlt	r2, #45	@ tmp114,
	strblt	r2, [r1]	@ tmp114, *bf_5(D)
	.loc 1 46 0
	rsblt	r0, r0, #0	@ num, num
.LVL17:
	.loc 1 47 0
	addlt	r3, r3, #1	@ bf, bf,
.LVL18:
	.loc 1 49 0
	movs	r2, #0	@,
	movs	r1, #10	@,
	b	uli2a	@
.LVL19:
	.cfi_endproc
.LFE1:
	.size	li2a, .-li2a
	.section	.text.ui2a,"ax",%progbits
	.align	1
	.global	ui2a
	.syntax unified
	.thumb
	.thumb_func
	.fpu fpv4-sp-d16
	.type	ui2a, %function
ui2a:
.LFB2:
	.loc 1 55 0
	.cfi_startproc
	@ args = 0, pretend = 0, frame = 0
	@ frame_needed = 0, uses_anonymous_args = 0
.LVL20:
	push	{r4, r5, r6, r7, lr}	@
	.cfi_def_cfa_offset 20
	.cfi_offset 4, -20
	.cfi_offset 5, -16
	.cfi_offset 6, -12
	.cfi_offset 7, -8
	.cfi_offset 14, -4
	.loc 1 57 0
	movs	r4, #1	@ d,
.LVL21:
.L21:
	.loc 1 58 0
	udiv	r5, r0, r4	@ tmp124, num, d
	cmp	r5, r1	@ tmp124, base
	bcs	.L22	@,
	movs	r7, #0	@ n,
.LVL22:
.L23:
	.loc 1 60 0
	cbnz	r4, .L27	@ d,
	.loc 1 69 0
	strb	r4, [r3]	@ d, *bf_2
	pop	{r4, r5, r6, r7, pc}	@
.LVL23:
.L22:
	.loc 1 59 0
	muls	r4, r1, r4	@ d, base
.LVL24:
	b	.L21	@
.LVL25:
.L27:
.LBB3:
	.loc 1 61 0
	udiv	r6, r0, r4	@ _17, num, d
.LVL26:
	.loc 1 62 0
	mls	r0, r4, r6, r0	@ num, d, _17, num
.LVL27:
	.loc 1 63 0
	udiv	r4, r4, r1	@ d, d, base
.LVL28:
	.loc 1 64 0
	cbnz	r7, .L24	@ n,
	.loc 1 64 0 is_stmt 0 discriminator 1
	cmp	r6, #0	@ _17,
	bgt	.L24	@,
	.loc 1 64 0 discriminator 2
	cmp	r4, #0	@ d
	bne	.L23	@
.L24:
	.loc 1 65 0 is_stmt 1
	cmp	r6, #9	@ _17,
	add	lr, r3, #1	@ bf, bf,
.LVL29:
	ble	.L28	@,
	.loc 1 65 0 is_stmt 0 discriminator 1
	cmp	r2, #0	@ uc,
	ite	ne
	movne	r5, #55	@ iftmp.6_6,
	moveq	r5, #87	@ iftmp.6_6,
.L26:
	.loc 1 65 0 discriminator 8
	add	r5, r5, r6	@ tmp132, _17
	strb	r5, [r3]	@ tmp132, *bf_2
	.loc 1 66 0 is_stmt 1 discriminator 8
	adds	r7, r7, #1	@ n, n,
.LVL30:
	.loc 1 65 0 discriminator 8
	mov	r3, lr	@ bf, bf
	b	.L23	@
.L28:
	.loc 1 65 0 is_stmt 0
	movs	r5, #48	@ iftmp.6_6,
	b	.L26	@
.LBE3:
	.cfi_endproc
.LFE2:
	.size	ui2a, .-ui2a
	.section	.text.i2a,"ax",%progbits
	.align	1
	.global	i2a
	.syntax unified
	.thumb
	.thumb_func
	.fpu fpv4-sp-d16
	.type	i2a, %function
i2a:
.LFB3:
	.loc 1 73 0 is_stmt 1
	.cfi_startproc
	@ args = 0, pretend = 0, frame = 0
	@ frame_needed = 0, uses_anonymous_args = 0
	@ link register save eliminated.
.LVL31:
	.loc 1 74 0
	cmp	r0, #0	@ num
	.loc 1 73 0
	mov	r3, r1	@ bf, bf
	.loc 1 76 0
	itttt	lt
	movlt	r2, #45	@ tmp114,
	strblt	r2, [r1]	@ tmp114, *bf_5(D)
	.loc 1 75 0
	rsblt	r0, r0, #0	@ num, num
.LVL32:
	.loc 1 76 0
	addlt	r3, r3, #1	@ bf, bf,
.LVL33:
	.loc 1 78 0
	movs	r2, #0	@,
	movs	r1, #10	@,
	b	ui2a	@
.LVL34:
	.cfi_endproc
.LFE3:
	.size	i2a, .-i2a
	.section	.text.a2d,"ax",%progbits
	.align	1
	.global	a2d
	.syntax unified
	.thumb
	.thumb_func
	.fpu fpv4-sp-d16
	.type	a2d, %function
a2d:
.LFB4:
	.loc 1 82 0
	.cfi_startproc
	@ args = 0, pretend = 0, frame = 0
	@ frame_needed = 0, uses_anonymous_args = 0
	@ link register save eliminated.
.LVL35:
	.loc 1 83 0
	sub	r3, r0, #48	@ tmp118, ch,
	uxtb	r2, r3	@ tmp119, tmp118
	cmp	r2, #9	@ tmp119,
	bhi	.L33	@,
	.loc 1 84 0
	mov	r0, r3	@ <retval>, tmp118
.LVL36:
	bx	lr	@
.LVL37:
.L33:
	.loc 1 85 0
	sub	r3, r0, #97	@ tmp121, ch,
	cmp	r3, #5	@ tmp121,
	bhi	.L35	@,
	.loc 1 86 0
	subs	r0, r0, #87	@ <retval>, ch,
.LVL38:
	bx	lr	@
.LVL39:
.L35:
.LBB6:
.LBB7:
	.loc 1 87 0
	sub	r3, r0, #65	@ tmp123, ch,
	cmp	r3, #5	@ tmp123,
	.loc 1 88 0
	ite	ls
	subls	r0, r0, #55	@ <retval>, ch,
.LVL40:
	.loc 1 90 0
	movhi	r0, #-1	@ <retval>,
.LBE7:
.LBE6:
	.loc 1 91 0
	bx	lr	@
	.cfi_endproc
.LFE4:
	.size	a2d, .-a2d
	.section	.text.a2i,"ax",%progbits
	.align	1
	.global	a2i
	.syntax unified
	.thumb
	.thumb_func
	.fpu fpv4-sp-d16
	.type	a2i, %function
a2i:
.LFB5:
	.loc 1 94 0
	.cfi_startproc
	@ args = 0, pretend = 0, frame = 0
	@ frame_needed = 0, uses_anonymous_args = 0
.LVL41:
	push	{r4, r5, r6, r7, r8, lr}	@
	.cfi_def_cfa_offset 24
	.cfi_offset 4, -24
	.cfi_offset 5, -20
	.cfi_offset 6, -16
	.cfi_offset 7, -12
	.cfi_offset 8, -8
	.cfi_offset 14, -4
	.loc 1 95 0
	ldr	r5, [r1]	@ p, *src_6(D)
.LVL42:
	.loc 1 94 0
	mov	r7, r2	@ base, base
	mov	r8, r3	@ nump, nump
	.loc 1 98 0
	mov	r4, r0	@ <retval>, ch
	.loc 1 96 0
	movs	r6, #0	@ num,
.LVL43:
.L38:
	.loc 1 98 0
	mov	r0, r4	@, <retval>
	bl	a2d	@
.LVL44:
	cmp	r0, #0	@ digit
	bge	.L40	@,
.L41:
	.loc 1 104 0
	str	r5, [r1]	@ p, *src_6(D)
	.loc 1 107 0
	mov	r0, r4	@, <retval>
.LVL45:
	.loc 1 105 0
	str	r6, [r8]	@ num, *nump_16(D)
	.loc 1 107 0
	pop	{r4, r5, r6, r7, r8, pc}	@
.LVL46:
.L40:
	.loc 1 99 0
	cmp	r0, r7	@ digit, base
	bgt	.L41	@,
	.loc 1 101 0
	mla	r6, r7, r6, r0	@ num, base, num, digit
.LVL47:
	.loc 1 102 0
	ldrb	r4, [r5], #1	@ zero_extendqisi2	@ <retval>, MEM[base: p_13, offset: 4294967295B]
.LVL48:
	b	.L38	@
	.cfi_endproc
.LFE5:
	.size	a2i, .-a2i
	.section	.text.itoa,"ax",%progbits
	.align	1
	.global	itoa
	.syntax unified
	.thumb
	.thumb_func
	.fpu fpv4-sp-d16
	.type	itoa, %function
itoa:
.LFB7:
	.loc 1 134 0
	.cfi_startproc
	@ args = 0, pretend = 0, frame = 0
	@ frame_needed = 0, uses_anonymous_args = 0
.LVL49:
	.loc 1 135 0
	subs	r3, r2, #2	@ tmp124, base,
	.loc 1 136 0
	cmp	r3, #35	@ tmp124,
	it	cs
	movcs	r2, #10	@ base,
.LVL50:
	.loc 1 137 0
	subs	r3, r0, #0	@ i, i
	.loc 1 138 0
	it	lt
	movlt	r0, #45	@ tmp125,
.LVL51:
	.loc 1 134 0
	push	{r4, lr}	@
	.cfi_def_cfa_offset 8
	.cfi_offset 4, -8
	.cfi_offset 14, -4
	.loc 1 134 0
	mov	r4, r1	@ a, a
	.loc 1 138 0
	itt	lt
	strblt	r0, [r1], #1	@ tmp125, *a_8(D)
.LVL52:
	.loc 1 139 0
	rsblt	r0, r3, #0	@, i
	.loc 1 141 0
	bl	_i2a	@
.LVL53:
	movs	r3, #0	@ tmp131,
	strb	r3, [r0]	@ tmp131,* _20
	.loc 1 143 0
	mov	r0, r4	@, a
	pop	{r4, pc}	@
	.cfi_endproc
.LFE7:
	.size	itoa, .-itoa
	.section	.text.ftoa,"ax",%progbits
	.align	1
	.global	ftoa
	.syntax unified
	.thumb
	.thumb_func
	.fpu fpv4-sp-d16
	.type	ftoa, %function
ftoa:
.LFB8:
	.loc 1 148 0
	.cfi_startproc
	@ args = 0, pretend = 0, frame = 24
	@ frame_needed = 0, uses_anonymous_args = 0
.LVL54:
	.loc 1 155 0
	vcmpe.f32	s0, #0	@ x
	vldr.32	s15, .L60	@ tmp171,
	vmrs	APSR_nzcv, FPSCR
	.loc 1 156 0
	ite	gt
	vaddgt.f32	s0, s0, s15	@ x, x, tmp171
.LVL55:
	.loc 1 158 0
	vsuble.f32	s0, s0, s15	@ x, x, tmp171
	.loc 1 160 0
	vldr.32	s15, .L60+4	@ tmp130,
	vmul.f32	s0, s0, s15	@ tmp129, x, tmp130
	.loc 1 148 0
	push	{r4, r5, lr}	@
	.cfi_def_cfa_offset 12
	.cfi_offset 4, -12
	.cfi_offset 5, -8
	.cfi_offset 14, -4
	.loc 1 160 0
	vcvt.s32.f32	s15, s0	@ value, tmp129
	.loc 1 148 0
	sub	sp, sp, #28	@,,
	.cfi_def_cfa_offset 40
	.loc 1 160 0
	vmov	r4, s15	@ int	@ value, value
	.loc 1 148 0
	mov	r5, r0	@ floatString, floatString
	.loc 1 162 0
	eor	r0, r4, r4, asr #31	@, value, value,
.LVL56:
	.loc 1 151 0
	movs	r3, #0	@ tmp125,
	.loc 1 162 0
	movs	r2, #10	@,
	mov	r1, sp	@,
	sub	r0, r0, r4, asr #31	@,, value,
	.loc 1 151 0
	str	r3, [sp, #12]	@ tmp125, intString2
	str	r3, [sp, #16]	@ tmp125, intString2
	str	r3, [sp, #20]	@ tmp125, intString2
.LVL57:
	.loc 1 162 0
	bl	itoa	@
.LVL58:
	.loc 1 164 0
	cmp	r4, #0	@ value,
	.loc 1 165 0
	ite	ge
	movge	r3, #32	@ tmp133,
	.loc 1 167 0
	movlt	r3, #45	@ tmp135,
	.loc 1 169 0
	mov	r0, sp	@,
	.loc 1 167 0
	strb	r3, [sp, #12]	@ tmp135, intString2
	.loc 1 169 0
	bl	strlen	@
.LVL59:
	cmp	r0, #1	@ tmp138,
	bne	.L53	@,
	.loc 1 170 0
	movs	r3, #48	@ tmp139,
	strb	r3, [sp, #13]	@ tmp139, intString2
	.loc 1 171 0
	strb	r3, [sp, #14]	@ tmp139, intString2
	.loc 1 172 0
	strb	r3, [sp, #15]	@ tmp139, intString2
.L56:
	.loc 1 182 0
	mov	r1, sp	@,
	add	r0, sp, #12	@ tmp179,,
	bl	strcat	@
.LVL60:
	.loc 1 185 0
	add	r0, sp, #12	@ tmp180,,
	bl	strlen	@
.LVL61:
	subs	r0, r0, #3	@ tmp162,,
.LVL62:
	.loc 1 187 0
	uxtb	r4, r0	@ _29, tmp162
.LVL63:
	mov	r2, r4	@, _29
	add	r1, sp, #12	@ tmp181,,
	mov	r0, r5	@, floatString
	bl	strncpy	@
.LVL64:
	.loc 1 188 0
	movs	r3, #0	@ tmp164,
	strb	r3, [r5, r4]	@ tmp164, *_32
	.loc 1 189 0
	ldr	r1, .L60+8	@,
	mov	r0, r5	@, floatString
	bl	strcat	@
.LVL65:
	.loc 1 190 0
	add	r3, sp, #12	@ tmp182,,
	adds	r1, r3, r4	@, tmp182, _29
	mov	r0, r5	@, floatString
	bl	strcat	@
.LVL66:
	.loc 1 193 0
	mov	r0, r5	@, floatString
	add	sp, sp, #28	@,,
	.cfi_remember_state
	.cfi_def_cfa_offset 12
	@ sp needed	@
	pop	{r4, r5, pc}	@
.LVL67:
.L53:
	.cfi_restore_state
	.loc 1 174 0
	cmp	r0, #2	@ tmp138,
	bne	.L55	@,
	.loc 1 175 0
	movs	r3, #48	@ tmp147,
	strb	r3, [sp, #13]	@ tmp147, intString2
	.loc 1 176 0
	strb	r3, [sp, #14]	@ tmp147, intString2
	b	.L56	@
.L55:
	.loc 1 178 0
	cmp	r0, #3	@ tmp138,
	.loc 1 179 0
	itt	eq
	moveq	r3, #48	@ tmp153,
	strbeq	r3, [sp, #13]	@ tmp153, intString2
	b	.L56	@
.L61:
	.align	2
.L60:
	.word	973279855
	.word	1148846080
	.word	.LC1
	.cfi_endproc
.LFE8:
	.size	ftoa, .-ftoa
	.section	.text.fastA2F,"ax",%progbits
	.align	1
	.global	fastA2F
	.syntax unified
	.thumb
	.thumb_func
	.fpu fpv4-sp-d16
	.type	fastA2F, %function
fastA2F:
.LFB9:
	.loc 1 207 0
	.cfi_startproc
	@ args = 0, pretend = 0, frame = 0
	@ frame_needed = 0, uses_anonymous_args = 0
.LVL68:
	push	{r4, r5, lr}	@
	.cfi_def_cfa_offset 12
	.cfi_offset 4, -12
	.cfi_offset 5, -8
	.cfi_offset 14, -4
.LVL69:
.L63:
	.loc 1 212 0
	ldrb	r2, [r0]	@ zero_extendqisi2	@ _24, MEM[base: p_1, offset: 0B]
	cmp	r2, #32	@ _24,
	mov	r3, r0	@ p, ivtmp.102
.LVL70:
	add	r0, r0, #1	@ ivtmp.102, p,
.LVL71:
	beq	.L63	@,
	.loc 1 212 0 is_stmt 0 discriminator 1
	cmp	r2, #9	@ _24,
	beq	.L63	@,
.LVL72:
	.loc 1 218 0 is_stmt 1
	cmp	r2, #45	@ _24,
	bne	.L65	@,
.LVL73:
	.loc 1 220 0
	mov	r3, r0	@ p, ivtmp.102
	.loc 1 219 0
	vmov.f32	s0, #-1.0e+0	@ sign,
.LVL74:
.L66:
	.loc 1 227 0
	vldr.32	s14, .L95	@ value,
	mov	r2, r3	@ ivtmp.97, p
	.loc 1 229 0
	vmov.f32	s13, #1.0e+1	@ tmp187,
.LVL75:
.L67:
	mov	r3, r2	@ p, ivtmp.97
.LVL76:
	.loc 1 228 0
	ldrb	r0, [r2], #1	@ zero_extendqisi2	@ _31, MEM[base: p_3, offset: 0B]
	sub	r1, r0, #48	@ tmp157, _31,
	uxtb	r4, r1	@ tmp158, tmp157
	cmp	r4, #9	@ tmp158,
	bls	.L68	@,
	.loc 1 234 0
	cmp	r0, #46	@ _31,
	bne	.L69	@,
.LVL77:
.LBB8:
	.loc 1 235 0
	vmov.f32	s13, #1.0e+1	@ pow10,
	.loc 1 236 0
	mov	r1, r2	@ ivtmp.87, ivtmp.97
	vmov.f32	s12, s13	@ tmp180, pow10
.LVL78:
.L70:
	mov	r3, r1	@ p, ivtmp.87
.LVL79:
	.loc 1 238 0
	ldrb	r2, [r1], #1	@ zero_extendqisi2	@ _41, MEM[base: p_4, offset: 0B]
.LVL80:
	subs	r2, r2, #48	@ tmp163, _41,
	uxtb	r0, r2	@ tmp164, tmp163
	cmp	r0, #9	@ tmp164,
	bls	.L71	@,
.LVL81:
.L69:
.LBE8:
	.loc 1 247 0
	ldrb	r2, [r3]	@ zero_extendqisi2	@ *p_5, *p_5
	and	r2, r2, #223	@ tmp168, *p_5,
	cmp	r2, #69	@ tmp168,
	bne	.L84	@,
.LVL82:
.LBB9:
	.loc 1 253 0
	ldrb	r2, [r3, #1]	@ zero_extendqisi2	@ _52, MEM[(const char *)p_5 + 1B]
	cmp	r2, #45	@ _52,
	bne	.L73	@,
.LVL83:
	.loc 1 255 0
	adds	r3, r3, #2	@ p, p,
.LVL84:
	.loc 1 254 0
	movs	r0, #1	@ frac,
.LVL85:
.L74:
	subs	r3, r3, #1	@ ivtmp.76, p,
.LVL86:
	.loc 1 262 0
	movs	r2, #0	@ expon,
	.loc 1 264 0
	movs	r5, #10	@ tmp186,
.LVL87:
.L76:
	.loc 1 263 0
	ldrb	r1, [r3, #1]!	@ zero_extendqisi2	@ _55, MEM[base: _79, offset: 0B]
.LVL88:
	subs	r1, r1, #48	@ tmp171, _55,
	uxtb	r4, r1	@ tmp172, tmp171
	cmp	r4, #9	@ tmp172,
	bls	.L77	@,
	cmp	r2, #308	@ expon,
	it	cs
	movcs	r2, #308	@ _27,
.LVL89:
	.loc 1 273 0
	vldr.32	s13, .L95+4	@ tmp185,
	.loc 1 268 0
	mov	r3, r2	@ expon, _27
.LVL90:
	vmov.f32	s15, #1.0e+0	@ scale,
.LVL91:
.L78:
	.loc 1 272 0
	cmp	r3, #7	@ expon,
	bhi	.L79	@,
	and	r2, r2, #7	@ expon, _27,
	.loc 1 277 0
	vmov.f32	s13, #1.0e+1	@ tmp184,
.LVL92:
.L80:
	.loc 1 276 0
	cbnz	r2, .L81	@ expon,
.LBE9:
	.loc 1 283 0
	cbz	r0, .L72	@ frac,
	.loc 1 283 0 is_stmt 0 discriminator 1
	vdiv.f32	s13, s14, s15	@ iftmp.14_21, value, scale
.LVL93:
.L82:
	.loc 1 284 0 is_stmt 1 discriminator 4
	vmul.f32	s0, s0, s13	@, sign, iftmp.14_21
.LVL94:
	pop	{r4, r5, pc}	@
.LVL95:
.L65:
	.loc 1 223 0
	cmp	r2, #43	@ _24,
	it	eq	@
	moveq	r3, r0	@, p, ivtmp.102
	vmov.f32	s0, #1.0e+0	@ sign,
	b	.L66	@
.LVL96:
.L68:
	.loc 1 229 0
	vmov	s15, r1	@ int	@ tmp157, tmp157
	vcvt.f32.s32	s15, s15	@ tmp155, tmp157
	vfma.f32	s15, s14, s13	@ tmp155, value, tmp187
	vmov.f32	s14, s15	@ value, tmp155
.LVL97:
	b	.L67	@
.LVL98:
.L71:
.LBB10:
	.loc 1 239 0
	vmov	s15, r2	@ int	@ tmp163, tmp163
	vcvt.f32.s32	s15, s15	@ tmp160, tmp163
	vdiv.f32	s11, s15, s13	@ tmp161, tmp160, pow10
	.loc 1 240 0
	vmul.f32	s13, s13, s12	@ pow10, pow10, tmp180
.LVL99:
	.loc 1 239 0
	vadd.f32	s14, s14, s11	@ value, value, tmp161
.LVL100:
	b	.L70	@
.LVL101:
.L73:
.LBE10:
.LBB11:
	.loc 1 257 0
	cmp	r2, #43	@ _52,
	.loc 1 249 0
	ite	ne
	addne	r3, r3, #1	@ p, p,
.LVL102:
	.loc 1 258 0
	addeq	r3, r3, #2	@ p, p,
.LVL103:
	.loc 1 252 0
	movs	r0, #0	@ frac,
	b	.L74	@
.LVL104:
.L77:
	.loc 1 264 0
	mla	r2, r5, r2, r1	@ expon, tmp186, expon, tmp171
.LVL105:
	b	.L76	@
.LVL106:
.L79:
	.loc 1 273 0
	vmul.f32	s15, s15, s13	@ scale, scale, tmp185
.LVL107:
	.loc 1 274 0
	subs	r3, r3, #8	@ expon, expon,
.LVL108:
	b	.L78	@
.LVL109:
.L81:
	.loc 1 277 0
	vmul.f32	s15, s15, s13	@ scale, scale, tmp184
.LVL110:
	.loc 1 278 0
	subs	r2, r2, #1	@ expon, expon,
.LVL111:
	b	.L80	@
.LVL112:
.L84:
.LBE11:
	.loc 1 246 0
	vmov.f32	s15, #1.0e+0	@ scale,
.LVL113:
.L72:
	.loc 1 283 0 discriminator 2
	vmul.f32	s13, s14, s15	@ iftmp.14_21, value, scale
	b	.L82	@
.L96:
	.align	2
.L95:
	.word	0
	.word	1287568416
	.cfi_endproc
.LFE9:
	.size	fastA2F, .-fastA2F
	.section	.rodata._i2a.str1.1,"aMS",%progbits,1
.LC0:
	.ascii	"0123456789ABCDEFGHIJKLMNOPQRSTUVWXYZ\000"
	.section	.rodata.ftoa.str1.1,"aMS",%progbits,1
.LC1:
	.ascii	".\000"
	.text
.Letext0:
	.file 2 "/usr/include/newlib/machine/_default_types.h"
	.file 3 "/usr/include/newlib/sys/_stdint.h"
	.file 4 "/usr/include/newlib/sys/lock.h"
	.file 5 "/usr/include/newlib/sys/_types.h"
	.file 6 "/usr/lib/gcc/arm-none-eabi/6.3.1/include/stddef.h"
	.file 7 "/usr/include/newlib/sys/reent.h"
	.file 8 "/usr/include/newlib/math.h"
	.file 9 "/usr/include/newlib/string.h"